

Microchip MPLAB XC8 Assembler V2.45 build 20230818022343 
                                                                                               Fri May 17 22:33:07 2024

Microchip MPLAB XC8 C Compiler v2.45 (Free license) build 20230818022343 Og1 
     1                           	processor	18F4620
     2                           	fnconf	rparam,??,?,0
     3                           	pagewidth 120
     4                           	opt	flic
     5                           	psect	idataCOMRAM,global,class=CODE,delta=1,noexec
     6                           	psect	idataBANK0,global,class=CODE,delta=1,noexec
     7                           	psect	smallconst,global,reloc=2,class=SMALLCONST,delta=1,noexec
     8                           	psect	cinit,global,reloc=2,class=CODE,delta=1
     9                           	psect	bssCOMRAM,global,class=COMRAM,space=1,delta=1,lowdata,noexec
    10                           	psect	dataCOMRAM,global,class=COMRAM,space=1,delta=1,lowdata,noexec
    11                           	psect	bssBANK0,global,class=BANK0,space=1,delta=1,lowdata,noexec
    12                           	psect	dataBANK0,global,class=BANK0,space=1,delta=1,lowdata,noexec
    13                           	psect	cstackBANK0,global,class=BANK0,space=1,delta=1,lowdata,noexec
    14                           	psect	cstackCOMRAM,global,class=COMRAM,space=1,delta=1,lowdata,noexec
    15                           	psect	text0,global,reloc=2,class=CODE,delta=1
    16                           	psect	text1,global,reloc=2,class=CODE,delta=1
    17                           	psect	text2,global,reloc=2,class=CODE,delta=1
    18                           	psect	text3,global,reloc=2,class=CODE,delta=1
    19                           	psect	text4,global,reloc=2,class=CODE,delta=1
    20                           	psect	text5,global,reloc=2,class=CODE,delta=1
    21                           	psect	text6,global,reloc=2,class=CODE,delta=1
    22                           	psect	text7,global,reloc=2,class=CODE,delta=1,inline
    23                           	psect	text8,global,reloc=2,class=CODE,delta=1,inline
    24                           	psect	text9,global,reloc=2,class=CODE,delta=1,inline
    25                           	psect	text10,global,reloc=2,class=CODE,delta=1
    26                           	psect	text11,global,reloc=2,class=CODE,delta=1,group=3
    27                           	psect	text12,global,reloc=2,class=CODE,delta=1,group=1
    28                           	psect	text13,global,reloc=2,class=CODE,delta=1,group=1
    29                           	psect	text14,global,reloc=2,class=CODE,delta=1,group=3
    30                           	psect	text15,global,reloc=2,class=CODE,delta=1,group=3
    31                           	psect	text16,global,reloc=2,class=CODE,delta=1,group=3
    32                           	psect	text17,global,reloc=2,class=CODE,delta=1,group=2
    33                           	psect	text18,global,reloc=2,class=CODE,delta=1,group=2
    34                           	psect	text19,global,reloc=2,class=CODE,delta=1,group=3
    35                           	psect	text20,global,reloc=2,class=CODE,delta=1
    36                           	psect	text21,global,reloc=2,class=CODE,delta=1
    37                           	psect	text22,global,reloc=2,class=CODE,delta=1
    38                           	psect	text23,global,reloc=2,class=CODE,delta=1
    39                           	psect	text24,global,reloc=2,class=CODE,delta=1
    40                           	psect	text25,global,reloc=2,class=CODE,delta=1
    41                           	psect	text26,global,reloc=2,class=CODE,delta=1
    42                           	psect	text27,global,reloc=2,class=CODE,delta=1
    43                           	psect	intcode,global,reloc=2,class=CODE,delta=1
    44                           	psect	intcode_body,global,reloc=2,class=CODE,delta=1
    45                           	psect	text29,global,reloc=2,class=CODE,delta=1
    46                           	psect	text30,global,reloc=2,class=CODE,delta=1
    47                           	psect	text31,global,reloc=2,class=CODE,delta=1
    48                           	psect	text32,global,reloc=2,class=CODE,delta=1
    49                           	psect	text33,global,reloc=2,class=CODE,delta=1
    50                           	psect	text34,global,reloc=2,class=CODE,delta=1
    51                           	psect	text35,global,reloc=2,class=CODE,delta=1
    52                           	psect	text36,global,reloc=2,class=CODE,delta=1
    53                           	psect	text37,global,reloc=2,class=CODE,delta=1
    54                           	psect	text38,global,reloc=2,class=CODE,delta=1
    55                           	psect	text39,global,reloc=2,class=CODE,delta=1
    56                           	psect	text40,global,reloc=2,class=CODE,delta=1
    57                           	psect	text41,global,reloc=2,class=CODE,delta=1
    58                           	psect	text42,global,reloc=2,class=CODE,delta=1
    59                           	psect	text43,global,reloc=2,class=CODE,delta=1
    60                           	psect	text44,global,reloc=2,class=CODE,delta=1
    61                           	psect	text45,global,reloc=2,class=CODE,delta=1
    62                           	psect	text46,global,reloc=2,class=CODE,delta=1
    63                           	psect	text47,global,reloc=2,class=CODE,delta=1
    64                           	psect	text48,global,reloc=2,class=CODE,delta=1
    65                           	psect	intsave_regs,global,class=BIGRAM,space=1,delta=1,noexec
    66                           	psect	text49,global,reloc=2,class=CODE,delta=1
    67                           	psect	rparam,global,class=COMRAM,space=1,delta=1,noexec
    68                           	psect	temp,global,ovrld,common,class=COMRAM,space=1,delta=1
    69                           	psect	config,global,abs,ovrld,class=CONFIG,space=4,delta=1,noexec
    70   000000                     
    71                           ; Generated 23/03/2023 GMT
    72                           ; 
    73                           ; Copyright © 2023, Microchip Technology Inc. and its subsidiaries ("Microchip")
    74                           ; All rights reserved.
    75                           ; 
    76                           ; This software is developed by Microchip Technology Inc. and its subsidiaries ("Microch
      +                          ip").
    77                           ; 
    78                           ; Redistribution and use in source and binary forms, with or without modification, are
    79                           ; permitted provided that the following conditions are met:
    80                           ; 
    81                           ;     1. Redistributions of source code must retain the above copyright notice, this lis
      +                          t of
    82                           ;        conditions and the following disclaimer.
    83                           ; 
    84                           ;     2. Redistributions in binary form must reproduce the above copyright notice, this 
      +                          list
    85                           ;        of conditions and the following disclaimer in the documentation and/or other
    86                           ;        materials provided with the distribution. Publication is not required when
    87                           ;        this file is used in an embedded application.
    88                           ; 
    89                           ;     3. Microchip's name may not be used to endorse or promote products derived from th
      +                          is
    90                           ;        software without specific prior written permission.
    91                           ; 
    92                           ; THIS SOFTWARE IS PROVIDED BY MICROCHIP "AS IS" AND ANY EXPRESS OR IMPLIED WARRANTIES,
    93                           ; INCLUDING, BUT NOT LIMITED TO, THE IMPLIED WARRANTIES OF MERCHANTABILITY AND FITNESS F
      +                          OR
    94                           ; PURPOSE ARE DISCLAIMED.  IN NO EVENT SHALL MICROCHIP BE LIABLE FOR ANY DIRECT, INDIREC
      +                          T,
    95                           ; INCIDENTAL, SPECIAL, EXEMPLARY, OR CONSEQUENTIAL DAMAGES (INCLUDING BUT NOT LIMITED TO
    96                           ; PROCUREMENT OF SUBSTITUTE GOODS OR SERVICES; LOSS OF USE, DATA OR PROFITS; OR BUSINESS
    97                           ; INTERRUPTION) HOWSOEVER CAUSED AND ON ANY THEORY OF LIABILITY, WHETHER IN CONTRACT, ST
      +                          RICT
    98                           ; LIABILITY, OR TORT (INCLUDING NEGLIGENCE OR OTHERWISE) ARISING IN ANY WAY OUT OF THE U
      +                          SE OF
    99                           ; THIS SOFTWARE, EVEN IF ADVISED OF THE POSSIBILITY OF SUCH DAMAGE.
   100                           ; 
   101                           ; 
   102                           ; Code-generator required, PIC18F4620 Definitions
   103                           ; 
   104                           ; SFR Addresses
   105   000000                     
   106                           	psect	idataCOMRAM
   107   00244E                     __pidataCOMRAM:
   108                           	callstack 0
   109                           
   110                           ;initializer for spi_slave_mode_configuration@F3145
   111   00244E  68                 	db	104
   112                           
   113                           ;initializer for spi_slave_mode_configuration@F3143
   114   00244F  5A                 	db	90
   115                           
   116                           ;initializer for spi_slave_mode_configuration@F3141
   117   002450  62                 	db	98
   118                           
   119                           ;initializer for spi_slave_mode_configuration@F3139
   120   002451  2A                 	db	42
   121                           
   122                           ;initializer for spi_master_mode_configuration@F3135
   123   002452  1A                 	db	26
   124                           
   125                           ;initializer for spi_master_mode_configuration@F3133
   126   002453  62                 	db	98
   127                           
   128                           ;initializer for spi_master_mode_configuration@F3131
   129   002454  2A                 	db	42
   130                           
   131                           ;initializer for _RB7_Flag
   132   002455  01                 	db	1
   133                           
   134                           ;initializer for _RB6_Flag
   135   002456  01                 	db	1
   136                           
   137                           ;initializer for _RB5_Flag
   138   002457  01                 	db	1
   139                           
   140                           ;initializer for _RB4_Flag
   141   002458  01                 	db	1
   142                           
   143                           	psect	idataBANK0
   144   0023AA                     __pidataBANK0:
   145                           	callstack 0
   146                           
   147                           ;initializer for _lat_registers
   148   0023AA  89                 	db	137
   149   0023AB  0F                 	db	15
   150   0023AC  8A                 	db	138
   151   0023AD  0F                 	db	15
   152   0023AE  8B                 	db	139
   153   0023AF  0F                 	db	15
   154   0023B0  8C                 	db	140
   155   0023B1  0F                 	db	15
   156   0023B2  8D                 	db	141
   157   0023B3  0F                 	db	15
   158                           
   159                           ;initializer for _port_registers
   160   0023B4  80                 	db	128
   161   0023B5  0F                 	db	15
   162   0023B6  81                 	db	129
   163   0023B7  0F                 	db	15
   164   0023B8  82                 	db	130
   165   0023B9  0F                 	db	15
   166   0023BA  83                 	db	131
   167   0023BB  0F                 	db	15
   168   0023BC  84                 	db	132
   169   0023BD  0F                 	db	15
   170                           
   171                           ;initializer for _tris_registers
   172   0023BE  92                 	db	146
   173   0023BF  0F                 	db	15
   174   0023C0  93                 	db	147
   175   0023C1  0F                 	db	15
   176   0023C2  94                 	db	148
   177   0023C3  0F                 	db	15
   178   0023C4  95                 	db	149
   179   0023C5  0F                 	db	15
   180   0023C6  96                 	db	150
   181   0023C7  0F                 	db	15
   182                           
   183                           ;initializer for _lcd_1
   184   0023C8  02                 	db	2
   185   0023C9  0A                 	db	10
   186   0023CA  12                 	db	18
   187   0023CB  1A                 	db	26
   188   0023CC  22                 	db	34
   189   0023CD  2A                 	db	42
   190                           
   191                           	psect	smallconst
   192   001000                     __psmallconst:
   193                           	callstack 0
   194   001000  00                 	db	0
   195   001001                     _keypad_values:
   196                           	callstack 0
   197   001001  37                 	db	55
   198   001002  38                 	db	56
   199   001003  39                 	db	57
   200   001004  2F                 	db	47
   201   001005  34                 	db	52
   202   001006  35                 	db	53
   203   001007  36                 	db	54
   204   001008  2A                 	db	42
   205   001009  31                 	db	49
   206   00100A  32                 	db	50
   207   00100B  33                 	db	51
   208   00100C  2D                 	db	45
   209   00100D  63                 	db	99
   210   00100E  30                 	db	48
   211   00100F  3D                 	db	61
   212   001010  2B                 	db	43
   213   001011                     __end_of_keypad_values:
   214                           	callstack 0
   215   000000                     _TMR3L	set	4018
   216   000000                     _TMR3H	set	4019
   217   000000                     _TMR1L	set	4046
   218   000000                     _TMR1H	set	4047
   219   000000                     _SSPSTATbits	set	4039
   220   000000                     _SSPCON2bits	set	4037
   221   000000                     _SSPADD	set	4040
   222   000000                     _SSPCON1bits	set	4038
   223   000000                     _INTCON2bits	set	4081
   224   000000                     _INTCON3bits	set	4080
   225   000000                     _SPBRGH	set	4016
   226   000000                     _SPBRG	set	4015
   227   000000                     _BAUDCONbits	set	4024
   228   000000                     _RCREG	set	4014
   229   000000                     _TXREG	set	4013
   230   000000                     _TXSTAbits	set	4012
   231   000000                     _TRISCbits	set	3988
   232   000000                     _RCSTAbits	set	4011
   233   000000                     _EEDATA	set	4008
   234   000000                     _EECON2	set	4007
   235   000000                     _EEADR	set	4009
   236   000000                     _EEADRH	set	4010
   237   000000                     _CCPR2L	set	4027
   238   000000                     _CCPR2H	set	4028
   239   000000                     _CCPR1L	set	4030
   240   000000                     _CCPR1H	set	4031
   241   000000                     _ADCON1bits	set	4033
   242   000000                     _ADRESL	set	4035
   243   000000                     _ADRESH	set	4036
   244   000000                     _INTCONbits	set	4082
   245   000000                     _TRISD	set	3989
   246   000000                     _TRISB	set	3987
   247   000000                     _TRISE	set	3990
   248   000000                     _PORTBbits	set	3969
   249   000000                     _TXSTA1bits	set	4012
   250   000000                     _TRISC	set	3988
   251   000000                     _PIE1bits	set	3997
   252   000000                     _ADCON2bits	set	4032
   253   000000                     _ADCON0bits	set	4034
   254   000000                     _LATA	set	3977
   255   000000                     _PORTE	set	3972
   256   000000                     _PORTD	set	3971
   257   000000                     _PORTC	set	3970
   258   000000                     _PORTB	set	3969
   259   000000                     _PORTA	set	3968
   260   000000                     _TRISA	set	3986
   261   000000                     _PIE2bits	set	4000
   262   000000                     _CCP2CONbits	set	4026
   263   000000                     _CCP1CONbits	set	4029
   264   000000                     _PIR1bits	set	3998
   265   000000                     _EECON1bits	set	4006
   266   000000                     _T3CONbits	set	4017
   267   000000                     _PIR2bits	set	4001
   268   000000                     _LATE	set	3981
   269   000000                     _LATD	set	3980
   270   000000                     _LATC	set	3979
   271   000000                     _LATB	set	3978
   272   000000                     _TMR2	set	4044
   273   000000                     _T2CONbits	set	4042
   274   000000                     _T1CONbits	set	4045
   275   000000                     _T0CONbits	set	4053
   276   000000                     _SSPBUF	set	4041
   277   000000                     _TMR0H	set	4055
   278   000000                     _TMR0L	set	4054
   279   001011                     STR_4:
   280   001011  63                 	db	99	;'c'
   281   001012  6C                 	db	108	;'l'
   282   001013  6F                 	db	111	;'o'
   283   001014  63                 	db	99	;'c'
   284   001015  6B                 	db	107	;'k'
   285   001016  20                 	db	32
   286   001017  3A                 	db	58	;':'
   287   001018  00                 	db	0
   288   001019                     STR_1:
   289   001019  25                 	db	37
   290   00101A  69                 	db	105	;'i'
   291   00101B  00                 	db	0
   292   00101C  00                 	db	0	; dummy byte at the end
   293   000000                     
   294                           ; #config settings
   295                           
   296                           	psect	cinit
   297   001FCA                     __pcinit:
   298                           	callstack 0
   299   001FCA                     start_initialization:
   300                           	callstack 0
   301   001FCA                     __initialization:
   302                           	callstack 0
   303                           
   304                           ; Initialize objects allocated to BANK0 (36 bytes)
   305                           ; load TBLPTR registers with __pidataBANK0
   306   001FCA  0EAA               	movlw	low __pidataBANK0
   307   001FCC  6EF6               	movwf	tblptrl,c
   308   001FCE  0E23               	movlw	high __pidataBANK0
   309   001FD0  6EF7               	movwf	tblptrh,c
   310   001FD2  0E00               	movlw	low (__pidataBANK0 shr (0+16))
   311   001FD4  6EF8               	movwf	tblptru,c
   312   001FD6  EE00  F0D7         	lfsr	0,__pdataBANK0
   313   001FDA  EE10 F024          	lfsr	1,36
   314   001FDE                     copy_data0:
   315   001FDE  0009               	tblrd		*+
   316   001FE0  CFF5 FFEE          	movff	tablat,postinc0
   317   001FE4  50E5               	movf	postdec1,w,c
   318   001FE6  50E1               	movf	fsr1l,w,c
   319   001FE8  E1FA               	bnz	copy_data0
   320                           
   321                           ; Initialize objects allocated to COMRAM (11 bytes)
   322                           ; load TBLPTR registers with __pidataCOMRAM
   323   001FEA  0E4E               	movlw	low __pidataCOMRAM
   324   001FEC  6EF6               	movwf	tblptrl,c
   325   001FEE  0E24               	movlw	high __pidataCOMRAM
   326   001FF0  6EF7               	movwf	tblptrh,c
   327   001FF2  0E00               	movlw	low (__pidataCOMRAM shr (0+16))
   328   001FF4  6EF8               	movwf	tblptru,c
   329   001FF6  EE00  F071         	lfsr	0,__pdataCOMRAM
   330   001FFA  EE10 F00B          	lfsr	1,11
   331   001FFE                     copy_data1:
   332   001FFE  0009               	tblrd		*+
   333   002000  CFF5 FFEE          	movff	tablat,postinc0
   334   002004  50E5               	movf	postdec1,w,c
   335   002006  50E1               	movf	fsr1l,w,c
   336   002008  E1FA               	bnz	copy_data1
   337                           
   338                           ; Clear objects allocated to BANK0 (87 bytes)
   339   00200A  EE00  F080         	lfsr	0,__pbssBANK0
   340   00200E  0E57               	movlw	87
   341   002010                     clear_0:
   342   002010  6AEE               	clrf	postinc0,c
   343   002012  06E8               	decf	wreg,f,c
   344   002014  E1FD               	bnz	clear_0
   345                           
   346                           ; Clear objects allocated to COMRAM (66 bytes)
   347   002016  EE00  F001         	lfsr	0,__pbssCOMRAM
   348   00201A  0E42               	movlw	66
   349   00201C                     clear_1:
   350   00201C  6AEE               	clrf	postinc0,c
   351   00201E  06E8               	decf	wreg,f,c
   352   002020  E1FD               	bnz	clear_1
   353   002022                     end_of_initialization:
   354                           	callstack 0
   355   002022                     __end_of__initialization:
   356                           	callstack 0
   357   002022  907C               	bcf	int$flags,0,c	;clear compiler interrupt flag (level 1)
   358   002024  927C               	bcf	int$flags,1,c	;clear compiler interrupt flag (level 2)
   359   002026  0100               	movlb	0
   360   002028  EF1A  F00A         	goto	_main	;jump to C main() function
   361                           
   362                           	psect	bssCOMRAM
   363   000001                     __pbssCOMRAM:
   364                           	callstack 0
   365   000001                     _preload_vall:
   366                           	callstack 0
   367   000001                     	ds	2
   368   000003                     _TIMER1_INTERRUPPT_HANDLERF:
   369                           	callstack 0
   370   000003                     	ds	2
   371   000005                     _preload_value@hal_timer1$F3998:
   372                           	callstack 0
   373   000005                     	ds	2
   374   000007                     _preload_value:
   375                           	callstack 0
   376   000007                     	ds	2
   377   000009                     _MSSP_SPI_INTERRUPT_HANDLERF:
   378                           	callstack 0
   379   000009                     	ds	2
   380   00000B                     _I2C_INTERRUPT_HANDLERF:
   381                           	callstack 0
   382   00000B                     	ds	2
   383   00000D                     _I2C_Write_Collision_HANDLERF:
   384                           	callstack 0
   385   00000D                     	ds	2
   386   00000F                     _RB7_InterruptHandeler_Low:
   387                           	callstack 0
   388   00000F                     	ds	2
   389   000011                     _RB7_InterruptHandeler_High:
   390                           	callstack 0
   391   000011                     	ds	2
   392   000013                     _RB6_InterruptHandeler_Low:
   393                           	callstack 0
   394   000013                     	ds	2
   395   000015                     _RB6_InterruptHandeler_High:
   396                           	callstack 0
   397   000015                     	ds	2
   398   000017                     _RB5_InterruptHandeler_Low:
   399                           	callstack 0
   400   000017                     	ds	2
   401   000019                     _RB5_InterruptHandeler_High:
   402                           	callstack 0
   403   000019                     	ds	2
   404   00001B                     _RB4_InterruptHandeler_Low:
   405                           	callstack 0
   406   00001B                     	ds	2
   407   00001D                     _RB4_InterruptHandeler_High:
   408                           	callstack 0
   409   00001D                     	ds	2
   410   00001F                     _INT2_InterruptHandeler:
   411                           	callstack 0
   412   00001F                     	ds	2
   413   000021                     _INT1_InterruptHandeler:
   414                           	callstack 0
   415   000021                     	ds	2
   416   000023                     _INT0_InterruptHandeler:
   417                           	callstack 0
   418   000023                     	ds	2
   419   000025                     _EUSART_OVERRUN_ERROR_INTERRUPT_HANDLERF:
   420                           	callstack 0
   421   000025                     	ds	2
   422   000027                     _EUSART_FRAMING_ERROR_INTERRUPT_HANDLERF:
   423                           	callstack 0
   424   000027                     	ds	2
   425   000029                     _EUSART_RX_INTERRUPT_HANDLERF:
   426                           	callstack 0
   427   000029                     	ds	2
   428   00002B                     _EUSART_TX_INTERRUPT_HANDLERF:
   429                           	callstack 0
   430   00002B                     	ds	2
   431   00002D                     capture_read_value@F3164:
   432                           	callstack 0
   433   00002D                     	ds	2
   434   00002F                     _CCP2_INTERRUPT_HANDLERF:
   435                           	callstack 0
   436   00002F                     	ds	2
   437   000031                     _CCP1_INTERRUPT_HANDLERF:
   438                           	callstack 0
   439   000031                     	ds	2
   440   000033                     _ADC_INTERRUPT_HANDLERF:
   441                           	callstack 0
   442   000033                     	ds	2
   443   000035                     _flags:
   444                           	callstack 0
   445   000035                     	ds	1
   446   000036                     _hour_num:
   447                           	callstack 0
   448   000036                     	ds	1
   449   000037                     _minute_num:
   450                           	callstack 0
   451   000037                     	ds	1
   452   000038                     _second_num:
   453                           	callstack 0
   454   000038                     	ds	1
   455   000039                     _ret:
   456                           	callstack 0
   457   000039                     	ds	1
   458   00003A                     _tmr1_counter:
   459                           	callstack 0
   460   00003A                     	ds	1
   461   00003B                     _preload_val:
   462                           	callstack 0
   463   00003B                     	ds	1
   464   00003C                     relay_off@F3062:
   465                           	callstack 0
   466   00003C                     	ds	1
   467   00003D                     relay_on@F3057:
   468                           	callstack 0
   469   00003D                     	ds	1
   470   00003E                     relay_initalize@F3052:
   471                           	callstack 0
   472   00003E                     	ds	1
   473   00003F                     led_toggle@F3069:
   474                           	callstack 0
   475   00003F                     	ds	1
   476   000040                     led_off@F3064:
   477                           	callstack 0
   478   000040                     	ds	1
   479   000041                     led_on@F3059:
   480                           	callstack 0
   481   000041                     	ds	1
   482   000042                     led_intalize@F3054:
   483                           	callstack 0
   484   000042                     	ds	1
   485                           
   486                           	psect	dataCOMRAM
   487   000071                     __pdataCOMRAM:
   488                           	callstack 0
   489   000071                     spi_slave_mode_configuration@F3145:
   490                           	callstack 0
   491   000071                     	ds	1
   492   000072                     spi_slave_mode_configuration@F3143:
   493                           	callstack 0
   494   000072                     	ds	1
   495   000073                     spi_slave_mode_configuration@F3141:
   496                           	callstack 0
   497   000073                     	ds	1
   498   000074                     spi_slave_mode_configuration@F3139:
   499                           	callstack 0
   500   000074                     	ds	1
   501   000075                     spi_master_mode_configuration@F3135:
   502                           	callstack 0
   503   000075                     	ds	1
   504   000076                     spi_master_mode_configuration@F3133:
   505                           	callstack 0
   506   000076                     	ds	1
   507   000077                     spi_master_mode_configuration@F3131:
   508                           	callstack 0
   509   000077                     	ds	1
   510   000078                     _RB7_Flag:
   511                           	callstack 0
   512   000078                     	ds	1
   513   000079                     _RB6_Flag:
   514                           	callstack 0
   515   000079                     	ds	1
   516   00007A                     _RB5_Flag:
   517                           	callstack 0
   518   00007A                     	ds	1
   519   00007B                     _RB4_Flag:
   520                           	callstack 0
   521   00007B                     	ds	1
   522                           
   523                           	psect	bssBANK0
   524   000080                     __pbssBANK0:
   525                           	callstack 0
   526   000080                     _dbuf:
   527                           	callstack 0
   528   000080                     	ds	32
   529   0000A0                     	ds	6
   530   0000A6                     _width:
   531                           	callstack 0
   532   0000A6                     	ds	2
   533   0000A8                     _prec:
   534                           	callstack 0
   535   0000A8                     	ds	2
   536   0000AA                     _TIMER3_INTERRUPT_HANDLERF:
   537                           	callstack 0
   538   0000AA                     	ds	2
   539   0000AC                     _TMR2_INTERRUPT_HANDLER:
   540                           	callstack 0
   541   0000AC                     	ds	2
   542   0000AE                     _TIMER0_INTERRUPPT:
   543                           	callstack 0
   544   0000AE                     	ds	2
   545   0000B0                     _I2C_Receive_Overflow_IndicatoR_HANDLERF:
   546                           	callstack 0
   547   0000B0                     	ds	2
   548   0000B2                     _int1:
   549                           	callstack 0
   550   0000B2                     	ds	7
   551   0000B9                     _hour_nums2:
   552                           	callstack 0
   553   0000B9                     	ds	5
   554   0000BE                     _minute_nums2:
   555                           	callstack 0
   556   0000BE                     	ds	5
   557   0000C3                     _second_nums2:
   558                           	callstack 0
   559   0000C3                     	ds	5
   560   0000C8                     _hour_nums:
   561                           	callstack 0
   562   0000C8                     	ds	5
   563   0000CD                     _minute_nums:
   564                           	callstack 0
   565   0000CD                     	ds	5
   566   0000D2                     _second_nums:
   567                           	callstack 0
   568   0000D2                     	ds	5
   569                           
   570                           	psect	dataBANK0
   571   0000D7                     __pdataBANK0:
   572                           	callstack 0
   573   0000D7                     _lat_registers:
   574                           	callstack 0
   575   0000D7                     	ds	10
   576   0000E1                     _port_registers:
   577                           	callstack 0
   578   0000E1                     	ds	10
   579   0000EB                     _tris_registers:
   580                           	callstack 0
   581   0000EB                     	ds	10
   582   0000F5                     _lcd_1:
   583                           	callstack 0
   584   0000F5                     	ds	6
   585                           
   586                           	psect	cstackBANK0
   587   0000FB                     __pcstackBANK0:
   588                           	callstack 0
   589   0000FB                     convert_uint8_to_string@num:
   590                           	callstack 0
   591                           
   592                           ; 1 bytes @ 0x0
   593   0000FB                     	ds	1
   594   0000FC                     _main$5590:
   595                           	callstack 0
   596                           
   597                           ; 1 bytes @ 0x1
   598   0000FC                     	ds	1
   599   0000FD                     _main$5591:
   600                           	callstack 0
   601                           
   602                           ; 1 bytes @ 0x2
   603   0000FD                     	ds	1
   604                           
   605                           	psect	cstackCOMRAM
   606   000043                     __pcstackCOMRAM:
   607                           	callstack 0
   608   000043                     RB4_ISR@RB4_source:
   609                           	callstack 0
   610   000043                     RB5_ISR@RB5_source:
   611                           	callstack 0
   612   000043                     RB6_ISR@RB6_source:
   613                           	callstack 0
   614   000043                     RB7_ISR@RB7_source:
   615                           	callstack 0
   616   000043                     
   617                           ; 1 bytes @ 0x0
   618   000043                     	ds	1
   619   000044                     ??_InterruptManager:
   620                           
   621                           ; 1 bytes @ 0x1
   622   000044                     	ds	2
   623   000046                     ?___awdiv:
   624                           	callstack 0
   625   000046                     ?___awmod:
   626                           	callstack 0
   627   000046                     gpio_pin_direction_intialize@__pin_t:
   628                           	callstack 0
   629   000046                     gpio_pin_write_logic@_pin_t:
   630                           	callstack 0
   631   000046                     MODE_configure@hal_timer1$F3917@TMR:
   632                           	callstack 0
   633   000046                     register_configure@hal_timer1$F3923@TMR:
   634                           	callstack 0
   635   000046                     OSC_configure@TMR:
   636                           	callstack 0
   637   000046                     memset@dest:
   638                           	callstack 0
   639   000046                     ___awdiv@dividend:
   640                           	callstack 0
   641   000046                     ___awmod@dividend:
   642                           	callstack 0
   643   000046                     fputc@c:
   644                           	callstack 0
   645                           
   646                           ; 2 bytes @ 0x3
   647   000046                     	ds	1
   648   000047                     ??_gpio_pin_direction_intialize:
   649   000047                     gpio_pin_write_logic@logic:
   650                           	callstack 0
   651   000047                     TMR1_Init@TMR:
   652                           	callstack 0
   653   000047                     memset@c:
   654                           	callstack 0
   655                           
   656                           ; 2 bytes @ 0x4
   657   000047                     	ds	1
   658   000048                     ??_gpio_pin_write_logic:
   659   000048                     ??_TMR1_Init:
   660   000048                     fputc@fp:
   661                           	callstack 0
   662   000048                     ___awdiv@divisor:
   663                           	callstack 0
   664   000048                     ___awmod@divisor:
   665                           	callstack 0
   666                           
   667                           ; 2 bytes @ 0x5
   668   000048                     	ds	1
   669   000049                     ??_fputc:
   670   000049                     memset@n:
   671                           	callstack 0
   672                           
   673                           ; 2 bytes @ 0x6
   674   000049                     	ds	1
   675   00004A                     ___awdiv@counter:
   676                           	callstack 0
   677   00004A                     ___awmod@counter:
   678                           	callstack 0
   679                           
   680                           ; 1 bytes @ 0x7
   681   00004A                     	ds	1
   682   00004B                     ___awdiv@sign:
   683                           	callstack 0
   684   00004B                     ___awmod@sign:
   685                           	callstack 0
   686   00004B                     memset@p:
   687                           	callstack 0
   688                           
   689                           ; 1 bytes @ 0x8
   690   00004B                     	ds	1
   691   00004C                     ?_abs:
   692                           	callstack 0
   693   00004C                     gpio_pin_direction_intialize@ret:
   694                           	callstack 0
   695   00004C                     ___awdiv@quotient:
   696                           	callstack 0
   697   00004C                     abs@a:
   698                           	callstack 0
   699                           
   700                           ; 2 bytes @ 0x9
   701   00004C                     	ds	1
   702   00004D                     gpio_pin_write_logic@ret:
   703                           	callstack 0
   704                           
   705                           ; 1 bytes @ 0xA
   706   00004D                     	ds	1
   707   00004E                     ??_abs:
   708   00004E                     lcd_send_4bit_command_data@lcd:
   709                           	callstack 0
   710   00004E                     lcd_send_4bit_enable@lcd:
   711                           	callstack 0
   712   00004E                     gpio_pin_intialize@_pin_t:
   713                           	callstack 0
   714                           
   715                           ; 1 bytes @ 0xB
   716   00004E                     	ds	1
   717   00004F                     ??_gpio_pin_intialize:
   718   00004F                     lcd_send_4bit_command_data@data:
   719                           	callstack 0
   720   00004F                     lcd_send_4bit_enable@ret:
   721                           	callstack 0
   722                           
   723                           ; 1 bytes @ 0xC
   724   00004F                     	ds	1
   725   000050                     lcd_send_4bit_command_data@ret:
   726                           	callstack 0
   727   000050                     gpio_pin_intialize@ret:
   728                           	callstack 0
   729   000050                     vfpfcnvrt@fp:
   730                           	callstack 0
   731                           
   732                           ; 1 bytes @ 0xD
   733   000050                     	ds	1
   734   000051                     lcd_4bit_send_command@lcd:
   735                           	callstack 0
   736   000051                     lcd_4bit_send_data_char@lcd:
   737                           	callstack 0
   738   000051                     vfpfcnvrt@fmt:
   739                           	callstack 0
   740                           
   741                           ; 1 bytes @ 0xE
   742   000051                     	ds	1
   743   000052                     lcd_4bit_send_command@command:
   744                           	callstack 0
   745   000052                     lcd_4bit_send_data_char@data:
   746                           	callstack 0
   747   000052                     vfpfcnvrt@ap:
   748                           	callstack 0
   749                           
   750                           ; 1 bytes @ 0xF
   751   000052                     	ds	1
   752   000053                     ??_vfpfcnvrt:
   753   000053                     lcd_4bit_send_command@ret:
   754                           	callstack 0
   755   000053                     lcd_4bit_send_data_char@ret:
   756                           	callstack 0
   757                           
   758                           ; 1 bytes @ 0x10
   759   000053                     	ds	1
   760   000054                     lcd_4bit_initialize@lcd:
   761                           	callstack 0
   762   000054                     lcd_set_cursor_4bit@lcd:
   763                           	callstack 0
   764   000054                     vfpfcnvrt@done:
   765                           	callstack 0
   766                           
   767                           ; 1 bytes @ 0x11
   768   000054                     	ds	1
   769   000055                     ??_lcd_4bit_initialize:
   770   000055                     lcd_set_cursor_4bit@row:
   771                           	callstack 0
   772   000055                     vfpfcnvrt@cp:
   773                           	callstack 0
   774                           
   775                           ; 1 bytes @ 0x12
   776   000055                     	ds	1
   777   000056                     lcd_4bit_initialize@l_counter:
   778                           	callstack 0
   779   000056                     lcd_set_cursor_4bit@column:
   780                           	callstack 0
   781   000056                     vfpfcnvrt@convarg:
   782                           	callstack 0
   783                           
   784                           ; 4 bytes @ 0x13
   785   000056                     	ds	1
   786   000057                     ??_lcd_set_cursor_4bit:
   787   000057                     lcd_4bit_initialize@ret:
   788                           	callstack 0
   789                           
   790                           ; 1 bytes @ 0x14
   791   000057                     	ds	1
   792   000058                     
   793                           ; 1 bytes @ 0x15
   794   000058                     	ds	1
   795   000059                     lcd_set_cursor_4bit@ret:
   796                           	callstack 0
   797                           
   798                           ; 1 bytes @ 0x16
   799   000059                     	ds	1
   800   00005A                     lcd_4bit_send_data_char_posit@lcd:
   801                           	callstack 0
   802   00005A                     lcd_4bit_send_data_string_posit@lcd:
   803                           	callstack 0
   804   00005A                     vfpfcnvrt@c:
   805                           	callstack 0
   806                           
   807                           ; 1 bytes @ 0x17
   808   00005A                     	ds	1
   809   00005B                     ?_vfprintf:
   810                           	callstack 0
   811   00005B                     lcd_4bit_send_data_char_posit@row:
   812                           	callstack 0
   813   00005B                     lcd_4bit_send_data_string_posit@row:
   814                           	callstack 0
   815   00005B                     vfprintf@fp:
   816                           	callstack 0
   817                           
   818                           ; 1 bytes @ 0x18
   819   00005B                     	ds	1
   820   00005C                     lcd_4bit_send_data_char_posit@colunm:
   821                           	callstack 0
   822   00005C                     lcd_4bit_send_data_string_posit@colunm:
   823                           	callstack 0
   824   00005C                     vfprintf@fmt:
   825                           	callstack 0
   826                           
   827                           ; 1 bytes @ 0x19
   828   00005C                     	ds	1
   829   00005D                     lcd_4bit_send_data_char_posit@data:
   830                           	callstack 0
   831   00005D                     vfprintf@ap:
   832                           	callstack 0
   833   00005D                     lcd_4bit_send_data_string_posit@data:
   834                           	callstack 0
   835                           
   836                           ; 2 bytes @ 0x1A
   837   00005D                     	ds	1
   838   00005E                     lcd_4bit_send_data_char_posit@ret:
   839                           	callstack 0
   840   00005E                     vfprintf@cfmt:
   841                           	callstack 0
   842                           
   843                           ; 1 bytes @ 0x1B
   844   00005E                     	ds	1
   845   00005F                     ?_sprintf:
   846                           	callstack 0
   847   00005F                     lcd_4bit_send_data_string_posit@ret:
   848                           	callstack 0
   849   00005F                     sprintf@s:
   850                           	callstack 0
   851                           
   852                           ; 1 bytes @ 0x1C
   853   00005F                     	ds	1
   854   000060                     sprintf@fmt:
   855                           	callstack 0
   856                           
   857                           ; 1 bytes @ 0x1D
   858   000060                     	ds	3
   859   000063                     sprintf@ap:
   860                           	callstack 0
   861                           
   862                           ; 1 bytes @ 0x20
   863   000063                     	ds	1
   864   000064                     sprintf@f:
   865                           	callstack 0
   866                           
   867                           ; 12 bytes @ 0x21
   868   000064                     	ds	12
   869   000070                     convert_uint8_to_string@str:
   870                           	callstack 0
   871                           
   872                           ; 1 bytes @ 0x2D
   873   000070                     	ds	1
   874   000071                     
   875                           ; 1 bytes @ 0x2E
   876 ;;
   877 ;;Main: autosize = 0, tempsize = 0, incstack = 0, save=0
   878 ;;
   879 ;; *************** function _main *****************
   880 ;; Defined at:
   881 ;;		line 72 in file "application.c"
   882 ;; Parameters:    Size  Location     Type
   883 ;;		None
   884 ;; Auto vars:     Size  Location     Type
   885 ;;		None
   886 ;; Return value:  Size  Location     Type
   887 ;;                  2  1766[None  ] int 
   888 ;; Registers used:
   889 ;;		wreg, fsr0l, fsr0h, fsr1l, fsr1h, fsr2l, fsr2h, status,2, status,0, tblptrl, tblptrh, tblptru, prodl, prodh, cstack
   890 ;; Tracked objects:
   891 ;;		On entry : 0/0
   892 ;;		On exit  : 0/0
   893 ;;		Unchanged: 0/0
   894 ;; Data sizes:     COMRAM   BANK0   BANK1   BANK2   BANK3   BANK4   BANK5   BANK6   BANK7   BANK8   BANK9  BANK10  BANK1
      +1  BANK12  BANK13  BANK14  BANK15
   895 ;;      Params:         0       0       0       0       0       0       0       0       0       0       0       0       
      +0       0       0       0       0
   896 ;;      Locals:         0       2       0       0       0       0       0       0       0       0       0       0       
      +0       0       0       0       0
   897 ;;      Temps:          0       0       0       0       0       0       0       0       0       0       0       0       
      +0       0       0       0       0
   898 ;;      Totals:         0       2       0       0       0       0       0       0       0       0       0       0       
      +0       0       0       0       0
   899 ;;Total ram usage:        2 bytes
   900 ;; Hardware stack levels required when called: 9
   901 ;; This function calls:
   902 ;;		___awdiv
   903 ;;		___awmod
   904 ;;		_app_initialize
   905 ;;		_convert_uint8_to_string
   906 ;;		_interrupt_init1
   907 ;;		_lcd_4bit_send_data_char_posit
   908 ;;		_lcd_4bit_send_data_string_posit
   909 ;; This function is called by:
   910 ;;		Startup code after reset
   911 ;; This function uses a non-reentrant model
   912 ;;
   913                           
   914                           	psect	text0
   915   001434                     __ptext0:
   916                           	callstack 0
   917   001434                     _main:
   918                           	callstack 22
   919   001434                     
   920                           ;application.c: 73:      app_initialize();
   921   001434  EC2D  F012         	call	_app_initialize	;wreg free
   922   001438                     
   923                           ;application.c: 74:    interrupt_init1();
   924   001438  ECC2  F011         	call	_interrupt_init1	;wreg free
   925   00143C                     l8433:
   926                           
   927                           ;application.c: 77:         if(tmr1_counter == 4){
   928   00143C  0E04               	movlw	4
   929   00143E  183A               	xorwf	_tmr1_counter^0,w,c	;volatile
   930   001440  A4D8               	btfss	status,2,c
   931   001442  EF25  F00A         	goto	u7801
   932   001446  EF27  F00A         	goto	u7800
   933   00144A                     u7801:
   934   00144A  EF2A  F00A         	goto	l8439
   935   00144E                     u7800:
   936   00144E                     
   937                           ;application.c: 78:            second_num++;
   938   00144E  2A38               	incf	_second_num^0,f,c
   939   001450                     
   940                           ;application.c: 79:            tmr1_counter = 0;
   941   001450  0E00               	movlw	0
   942   001452  6E3A               	movwf	_tmr1_counter^0,c	;volatile
   943   001454                     l8439:
   944                           
   945                           ;application.c: 81:         ret = lcd_4bit_send_data_string_posit(&lcd_1 ,1,1, "clock :"
      +                          );
   946   001454  0EF5               	movlw	low _lcd_1
   947   001456  6E5A               	movwf	lcd_4bit_send_data_string_posit@lcd^0,c
   948   001458  0E01               	movlw	1
   949   00145A  6E5B               	movwf	lcd_4bit_send_data_string_posit@row^0,c
   950   00145C  0E01               	movlw	1
   951   00145E  6E5C               	movwf	lcd_4bit_send_data_string_posit@colunm^0,c
   952   001460  0E11               	movlw	low STR_4
   953   001462  6E5D               	movwf	lcd_4bit_send_data_string_posit@data^0,c
   954   001464  505D               	movf	lcd_4bit_send_data_string_posit@data^0,w,c
   955   001466  A4D8               	btfss	status,2,c
   956   001468  0E10               	movlw	high __smallconst
   957   00146A  6E5E               	movwf	(lcd_4bit_send_data_string_posit@data+1)^0,c
   958   00146C  EC28  F00F         	call	_lcd_4bit_send_data_string_posit	;wreg free
   959   001470  6E39               	movwf	_ret^0,c
   960   001472                     
   961                           ;application.c: 82:         convert_uint8_to_string(second_num%10 ,second_nums );
   962   001472  C038  F046         	movff	_second_num,___awmod@dividend
   963   001476  6A47               	clrf	(___awmod@dividend+1)^0,c
   964   001478  0E00               	movlw	0
   965   00147A  6E49               	movwf	(___awmod@divisor+1)^0,c
   966   00147C  0E0A               	movlw	10
   967   00147E  6E48               	movwf	___awmod@divisor^0,c
   968   001480  ECDE  F00D         	call	___awmod	;wreg free
   969   001484  5046               	movf	?___awmod^0,w,c
   970   001486  0100               	movlb	0	; () banked
   971   001488  6FFC               	movwf	_main$5590& (0+255),b
   972   00148A                     
   973                           ; BSR set to: 0
   974                           ;application.c: 82:         convert_uint8_to_string(second_num%10 ,second_nums );
   975   00148A  0ED2               	movlw	low _second_nums
   976   00148C  6E70               	movwf	convert_uint8_to_string@str^0,c
   977   00148E  51FC               	movf	_main$5590& (0+255),w,b
   978   001490  ECA1  F010         	call	_convert_uint8_to_string
   979   001494                     
   980                           ;application.c: 83:         convert_uint8_to_string(minute_num%10 ,minute_nums );
   981   001494  C037  F046         	movff	_minute_num,___awmod@dividend
   982   001498  6A47               	clrf	(___awmod@dividend+1)^0,c
   983   00149A  0E00               	movlw	0
   984   00149C  6E49               	movwf	(___awmod@divisor+1)^0,c
   985   00149E  0E0A               	movlw	10
   986   0014A0  6E48               	movwf	___awmod@divisor^0,c
   987   0014A2  ECDE  F00D         	call	___awmod	;wreg free
   988   0014A6  5046               	movf	?___awmod^0,w,c
   989   0014A8  0100               	movlb	0	; () banked
   990   0014AA  6FFC               	movwf	_main$5590& (0+255),b
   991   0014AC                     
   992                           ; BSR set to: 0
   993                           ;application.c: 83:         convert_uint8_to_string(minute_num%10 ,minute_nums );
   994   0014AC  0ECD               	movlw	low _minute_nums
   995   0014AE  6E70               	movwf	convert_uint8_to_string@str^0,c
   996   0014B0  51FC               	movf	_main$5590& (0+255),w,b
   997   0014B2  ECA1  F010         	call	_convert_uint8_to_string
   998   0014B6                     
   999                           ;application.c: 84:         convert_uint8_to_string(hour_num%10 ,hour_nums );
  1000   0014B6  C036  F046         	movff	_hour_num,___awmod@dividend
  1001   0014BA  6A47               	clrf	(___awmod@dividend+1)^0,c
  1002   0014BC  0E00               	movlw	0
  1003   0014BE  6E49               	movwf	(___awmod@divisor+1)^0,c
  1004   0014C0  0E0A               	movlw	10
  1005   0014C2  6E48               	movwf	___awmod@divisor^0,c
  1006   0014C4  ECDE  F00D         	call	___awmod	;wreg free
  1007   0014C8  5046               	movf	?___awmod^0,w,c
  1008   0014CA  0100               	movlb	0	; () banked
  1009   0014CC  6FFC               	movwf	_main$5590& (0+255),b
  1010   0014CE                     
  1011                           ; BSR set to: 0
  1012                           ;application.c: 84:         convert_uint8_to_string(hour_num%10 ,hour_nums );
  1013   0014CE  0EC8               	movlw	low _hour_nums
  1014   0014D0  6E70               	movwf	convert_uint8_to_string@str^0,c
  1015   0014D2  51FC               	movf	_main$5590& (0+255),w,b
  1016   0014D4  ECA1  F010         	call	_convert_uint8_to_string
  1017   0014D8                     
  1018                           ;application.c: 85:         convert_uint8_to_string(second_num/10 ,second_nums2 );
  1019   0014D8  C038  F046         	movff	_second_num,___awdiv@dividend
  1020   0014DC  6A47               	clrf	(___awdiv@dividend+1)^0,c
  1021   0014DE  0E00               	movlw	0
  1022   0014E0  6E49               	movwf	(___awdiv@divisor+1)^0,c
  1023   0014E2  0E0A               	movlw	10
  1024   0014E4  6E48               	movwf	___awdiv@divisor^0,c
  1025   0014E6  EC7C  F00D         	call	___awdiv	;wreg free
  1026   0014EA  5046               	movf	?___awdiv^0,w,c
  1027   0014EC  0100               	movlb	0	; () banked
  1028   0014EE  6FFD               	movwf	_main$5591& (0+255),b
  1029   0014F0                     
  1030                           ; BSR set to: 0
  1031                           ;application.c: 85:         convert_uint8_to_string(second_num/10 ,second_nums2 );
  1032   0014F0  0EC3               	movlw	low _second_nums2
  1033   0014F2  6E70               	movwf	convert_uint8_to_string@str^0,c
  1034   0014F4  51FD               	movf	_main$5591& (0+255),w,b
  1035   0014F6  ECA1  F010         	call	_convert_uint8_to_string
  1036   0014FA                     
  1037                           ;application.c: 86:         convert_uint8_to_string(minute_num/10 ,minute_nums2 );
  1038   0014FA  C037  F046         	movff	_minute_num,___awdiv@dividend
  1039   0014FE  6A47               	clrf	(___awdiv@dividend+1)^0,c
  1040   001500  0E00               	movlw	0
  1041   001502  6E49               	movwf	(___awdiv@divisor+1)^0,c
  1042   001504  0E0A               	movlw	10
  1043   001506  6E48               	movwf	___awdiv@divisor^0,c
  1044   001508  EC7C  F00D         	call	___awdiv	;wreg free
  1045   00150C  5046               	movf	?___awdiv^0,w,c
  1046   00150E  0100               	movlb	0	; () banked
  1047   001510  6FFD               	movwf	_main$5591& (0+255),b
  1048   001512                     
  1049                           ; BSR set to: 0
  1050                           ;application.c: 86:         convert_uint8_to_string(minute_num/10 ,minute_nums2 );
  1051   001512  0EBE               	movlw	low _minute_nums2
  1052   001514  6E70               	movwf	convert_uint8_to_string@str^0,c
  1053   001516  51FD               	movf	_main$5591& (0+255),w,b
  1054   001518  ECA1  F010         	call	_convert_uint8_to_string
  1055   00151C                     
  1056                           ;application.c: 87:         convert_uint8_to_string(hour_num/10 ,hour_nums2 );
  1057   00151C  C036  F046         	movff	_hour_num,___awdiv@dividend
  1058   001520  6A47               	clrf	(___awdiv@dividend+1)^0,c
  1059   001522  0E00               	movlw	0
  1060   001524  6E49               	movwf	(___awdiv@divisor+1)^0,c
  1061   001526  0E0A               	movlw	10
  1062   001528  6E48               	movwf	___awdiv@divisor^0,c
  1063   00152A  EC7C  F00D         	call	___awdiv	;wreg free
  1064   00152E  5046               	movf	?___awdiv^0,w,c
  1065   001530  0100               	movlb	0	; () banked
  1066   001532  6FFD               	movwf	_main$5591& (0+255),b
  1067   001534                     
  1068                           ; BSR set to: 0
  1069                           ;application.c: 87:         convert_uint8_to_string(hour_num/10 ,hour_nums2 );
  1070   001534  0EB9               	movlw	low _hour_nums2
  1071   001536  6E70               	movwf	convert_uint8_to_string@str^0,c
  1072   001538  51FD               	movf	_main$5591& (0+255),w,b
  1073   00153A  ECA1  F010         	call	_convert_uint8_to_string
  1074   00153E                     
  1075                           ;application.c: 89:         lcd_4bit_send_data_char_posit(&lcd_1 ,1,10, ':');
  1076   00153E  0EF5               	movlw	low _lcd_1
  1077   001540  6E5A               	movwf	lcd_4bit_send_data_char_posit@lcd^0,c
  1078   001542  0E01               	movlw	1
  1079   001544  6E5B               	movwf	lcd_4bit_send_data_char_posit@row^0,c
  1080   001546  0E0A               	movlw	10
  1081   001548  6E5C               	movwf	lcd_4bit_send_data_char_posit@colunm^0,c
  1082   00154A  0E3A               	movlw	58
  1083   00154C  6E5D               	movwf	lcd_4bit_send_data_char_posit@data^0,c
  1084   00154E  EC03  F011         	call	_lcd_4bit_send_data_char_posit	;wreg free
  1085   001552                     
  1086                           ;application.c: 90:         lcd_4bit_send_data_char_posit(&lcd_1 ,1,13, ':');
  1087   001552  0EF5               	movlw	low _lcd_1
  1088   001554  6E5A               	movwf	lcd_4bit_send_data_char_posit@lcd^0,c
  1089   001556  0E01               	movlw	1
  1090   001558  6E5B               	movwf	lcd_4bit_send_data_char_posit@row^0,c
  1091   00155A  0E0D               	movlw	13
  1092   00155C  6E5C               	movwf	lcd_4bit_send_data_char_posit@colunm^0,c
  1093   00155E  0E3A               	movlw	58
  1094   001560  6E5D               	movwf	lcd_4bit_send_data_char_posit@data^0,c
  1095   001562  EC03  F011         	call	_lcd_4bit_send_data_char_posit	;wreg free
  1096   001566                     
  1097                           ;application.c: 92:         lcd_4bit_send_data_string_posit(&lcd_1 ,1,8 ,hour_nums2 );
  1098   001566  0EF5               	movlw	low _lcd_1
  1099   001568  6E5A               	movwf	lcd_4bit_send_data_string_posit@lcd^0,c
  1100   00156A  0E01               	movlw	1
  1101   00156C  6E5B               	movwf	lcd_4bit_send_data_string_posit@row^0,c
  1102   00156E  0E08               	movlw	8
  1103   001570  6E5C               	movwf	lcd_4bit_send_data_string_posit@colunm^0,c
  1104   001572  0EB9               	movlw	low _hour_nums2
  1105   001574  6E5D               	movwf	lcd_4bit_send_data_string_posit@data^0,c
  1106   001576  6A5E               	clrf	(lcd_4bit_send_data_string_posit@data+1)^0,c
  1107   001578  EC28  F00F         	call	_lcd_4bit_send_data_string_posit	;wreg free
  1108   00157C                     
  1109                           ;application.c: 93:         lcd_4bit_send_data_string_posit(&lcd_1 , 1,9,hour_nums );
  1110   00157C  0EF5               	movlw	low _lcd_1
  1111   00157E  6E5A               	movwf	lcd_4bit_send_data_string_posit@lcd^0,c
  1112   001580  0E01               	movlw	1
  1113   001582  6E5B               	movwf	lcd_4bit_send_data_string_posit@row^0,c
  1114   001584  0E09               	movlw	9
  1115   001586  6E5C               	movwf	lcd_4bit_send_data_string_posit@colunm^0,c
  1116   001588  0EC8               	movlw	low _hour_nums
  1117   00158A  6E5D               	movwf	lcd_4bit_send_data_string_posit@data^0,c
  1118   00158C  6A5E               	clrf	(lcd_4bit_send_data_string_posit@data+1)^0,c
  1119   00158E  EC28  F00F         	call	_lcd_4bit_send_data_string_posit	;wreg free
  1120   001592                     
  1121                           ;application.c: 94:         lcd_4bit_send_data_string_posit(&lcd_1 , 1,11,minute_nums2 )
      +                          ;
  1122   001592  0EF5               	movlw	low _lcd_1
  1123   001594  6E5A               	movwf	lcd_4bit_send_data_string_posit@lcd^0,c
  1124   001596  0E01               	movlw	1
  1125   001598  6E5B               	movwf	lcd_4bit_send_data_string_posit@row^0,c
  1126   00159A  0E0B               	movlw	11
  1127   00159C  6E5C               	movwf	lcd_4bit_send_data_string_posit@colunm^0,c
  1128   00159E  0EBE               	movlw	low _minute_nums2
  1129   0015A0  6E5D               	movwf	lcd_4bit_send_data_string_posit@data^0,c
  1130   0015A2  6A5E               	clrf	(lcd_4bit_send_data_string_posit@data+1)^0,c
  1131   0015A4  EC28  F00F         	call	_lcd_4bit_send_data_string_posit	;wreg free
  1132   0015A8                     
  1133                           ;application.c: 95:         lcd_4bit_send_data_string_posit(&lcd_1 ,1,12 ,minute_nums );
  1134   0015A8  0EF5               	movlw	low _lcd_1
  1135   0015AA  6E5A               	movwf	lcd_4bit_send_data_string_posit@lcd^0,c
  1136   0015AC  0E01               	movlw	1
  1137   0015AE  6E5B               	movwf	lcd_4bit_send_data_string_posit@row^0,c
  1138   0015B0  0E0C               	movlw	12
  1139   0015B2  6E5C               	movwf	lcd_4bit_send_data_string_posit@colunm^0,c
  1140   0015B4  0ECD               	movlw	low _minute_nums
  1141   0015B6  6E5D               	movwf	lcd_4bit_send_data_string_posit@data^0,c
  1142   0015B8  6A5E               	clrf	(lcd_4bit_send_data_string_posit@data+1)^0,c
  1143   0015BA  EC28  F00F         	call	_lcd_4bit_send_data_string_posit	;wreg free
  1144   0015BE                     
  1145                           ;application.c: 96:         lcd_4bit_send_data_string_posit(&lcd_1 , 1,14,second_nums2 )
      +                          ;
  1146   0015BE  0EF5               	movlw	low _lcd_1
  1147   0015C0  6E5A               	movwf	lcd_4bit_send_data_string_posit@lcd^0,c
  1148   0015C2  0E01               	movlw	1
  1149   0015C4  6E5B               	movwf	lcd_4bit_send_data_string_posit@row^0,c
  1150   0015C6  0E0E               	movlw	14
  1151   0015C8  6E5C               	movwf	lcd_4bit_send_data_string_posit@colunm^0,c
  1152   0015CA  0EC3               	movlw	low _second_nums2
  1153   0015CC  6E5D               	movwf	lcd_4bit_send_data_string_posit@data^0,c
  1154   0015CE  6A5E               	clrf	(lcd_4bit_send_data_string_posit@data+1)^0,c
  1155   0015D0  EC28  F00F         	call	_lcd_4bit_send_data_string_posit	;wreg free
  1156   0015D4                     
  1157                           ;application.c: 97:         lcd_4bit_send_data_string_posit(&lcd_1 , 1,15,second_nums );
  1158   0015D4  0EF5               	movlw	low _lcd_1
  1159   0015D6  6E5A               	movwf	lcd_4bit_send_data_string_posit@lcd^0,c
  1160   0015D8  0E01               	movlw	1
  1161   0015DA  6E5B               	movwf	lcd_4bit_send_data_string_posit@row^0,c
  1162   0015DC  0E0F               	movlw	15
  1163   0015DE  6E5C               	movwf	lcd_4bit_send_data_string_posit@colunm^0,c
  1164   0015E0  0ED2               	movlw	low _second_nums
  1165   0015E2  6E5D               	movwf	lcd_4bit_send_data_string_posit@data^0,c
  1166   0015E4  6A5E               	clrf	(lcd_4bit_send_data_string_posit@data+1)^0,c
  1167   0015E6  EC28  F00F         	call	_lcd_4bit_send_data_string_posit	;wreg free
  1168   0015EA                     
  1169                           ;application.c: 99:              if(second_num == 60){
  1170   0015EA  0E3C               	movlw	60
  1171   0015EC  1838               	xorwf	_second_num^0,w,c
  1172   0015EE  A4D8               	btfss	status,2,c
  1173   0015F0  EFFC  F00A         	goto	u7811
  1174   0015F4  EFFE  F00A         	goto	u7810
  1175   0015F8                     u7811:
  1176   0015F8  EF01  F00B         	goto	l8487
  1177   0015FC                     u7810:
  1178   0015FC                     
  1179                           ;application.c: 100:                  second_num= 0;
  1180   0015FC  0E00               	movlw	0
  1181   0015FE  6E38               	movwf	_second_num^0,c
  1182   001600                     
  1183                           ;application.c: 101:              minute_num++;
  1184   001600  2A37               	incf	_minute_num^0,f,c
  1185   001602                     l8487:
  1186                           
  1187                           ;application.c: 103:               if(minute_num == 60){
  1188   001602  0E3C               	movlw	60
  1189   001604  1837               	xorwf	_minute_num^0,w,c
  1190   001606  A4D8               	btfss	status,2,c
  1191   001608  EF08  F00B         	goto	u7821
  1192   00160C  EF0A  F00B         	goto	u7820
  1193   001610                     u7821:
  1194   001610  EF1E  F00A         	goto	l8433
  1195   001614                     u7820:
  1196   001614                     
  1197                           ;application.c: 104:                   minute_num = 0;
  1198   001614  0E00               	movlw	0
  1199   001616  6E37               	movwf	_minute_num^0,c
  1200   001618                     
  1201                           ;application.c: 105:              hour_num++;
  1202   001618  2A36               	incf	_hour_num^0,f,c
  1203   00161A  EF1E  F00A         	goto	l8433
  1204   00161E  EF07  F000         	goto	start
  1205   001622                     __end_of_main:
  1206                           	callstack 0
  1207                           
  1208 ;; *************** function _lcd_4bit_send_data_string_posit *****************
  1209 ;; Defined at:
  1210 ;;		line 100 in file "ECU_Layer/CHR_LCD/ecu_chr_lcd.c"
  1211 ;; Parameters:    Size  Location     Type
  1212 ;;  lcd             1   23[COMRAM] PTR const struct .
  1213 ;;		 -> lcd_1(6), 
  1214 ;;  row             1   24[COMRAM] unsigned char 
  1215 ;;  colunm          1   25[COMRAM] unsigned char 
  1216 ;;  data            2   26[COMRAM] PTR unsigned char 
  1217 ;;		 -> hour_nums2(5), minute_nums2(5), second_nums2(5), hour_nums(5), 
  1218 ;;		 -> minute_nums(5), second_nums(5), STR_4(8), 
  1219 ;; Auto vars:     Size  Location     Type
  1220 ;;  ret             1   28[COMRAM] unsigned char 
  1221 ;; Return value:  Size  Location     Type
  1222 ;;                  1    wreg      unsigned char 
  1223 ;; Registers used:
  1224 ;;		wreg, fsr0l, fsr0h, fsr2l, fsr2h, status,2, status,0, tblptrl, tblptrh, tblptru, prodl, prodh, cstack
  1225 ;; Tracked objects:
  1226 ;;		On entry : 0/0
  1227 ;;		On exit  : 0/0
  1228 ;;		Unchanged: 0/0
  1229 ;; Data sizes:     COMRAM   BANK0   BANK1   BANK2   BANK3   BANK4   BANK5   BANK6   BANK7   BANK8   BANK9  BANK10  BANK1
      +1  BANK12  BANK13  BANK14  BANK15
  1230 ;;      Params:         5       0       0       0       0       0       0       0       0       0       0       0       
      +0       0       0       0       0
  1231 ;;      Locals:         1       0       0       0       0       0       0       0       0       0       0       0       
      +0       0       0       0       0
  1232 ;;      Temps:          0       0       0       0       0       0       0       0       0       0       0       0       
      +0       0       0       0       0
  1233 ;;      Totals:         6       0       0       0       0       0       0       0       0       0       0       0       
      +0       0       0       0       0
  1234 ;;Total ram usage:        6 bytes
  1235 ;; Hardware stack levels used: 1
  1236 ;; Hardware stack levels required when called: 7
  1237 ;; This function calls:
  1238 ;;		_lcd_4bit_send_data_char
  1239 ;;		_lcd_set_cursor_4bit
  1240 ;; This function is called by:
  1241 ;;		_main
  1242 ;; This function uses a non-reentrant model
  1243 ;;
  1244                           
  1245                           	psect	text1
  1246   001E50                     __ptext1:
  1247                           	callstack 0
  1248   001E50                     _lcd_4bit_send_data_string_posit:
  1249                           	callstack 23
  1250   001E50                     
  1251                           ;ECU_Layer/CHR_LCD/ecu_chr_lcd.c: 102:     if((((void*)0)==lcd)){
  1252   001E50  505A               	movf	lcd_4bit_send_data_string_posit@lcd^0,w,c
  1253   001E52  A4D8               	btfss	status,2,c
  1254   001E54  EF2E  F00F         	goto	u7081
  1255   001E58  EF30  F00F         	goto	u7080
  1256   001E5C                     u7081:
  1257   001E5C  EF34  F00F         	goto	l7743
  1258   001E60                     u7080:
  1259   001E60                     
  1260                           ;ECU_Layer/CHR_LCD/ecu_chr_lcd.c: 103:         ret =(Std_ReturnType)0x00 ;
  1261   001E60  0E00               	movlw	0
  1262   001E62  6E5F               	movwf	lcd_4bit_send_data_string_posit@ret^0,c
  1263                           
  1264                           ;ECU_Layer/CHR_LCD/ecu_chr_lcd.c: 104:     }else {
  1265   001E64  EF71  F00F         	goto	l7751
  1266   001E68                     l7743:
  1267                           
  1268                           ;ECU_Layer/CHR_LCD/ecu_chr_lcd.c: 105:          ret = lcd_set_cursor_4bit(lcd ,row , col
      +                          unm);
  1269   001E68  C05A  F054         	movff	lcd_4bit_send_data_string_posit@lcd,lcd_set_cursor_4bit@lcd
  1270   001E6C  C05B  F055         	movff	lcd_4bit_send_data_string_posit@row,lcd_set_cursor_4bit@row
  1271   001E70  C05C  F056         	movff	lcd_4bit_send_data_string_posit@colunm,lcd_set_cursor_4bit@column
  1272   001E74  ECDA  F00E         	call	_lcd_set_cursor_4bit	;wreg free
  1273   001E78  6E5F               	movwf	lcd_4bit_send_data_string_posit@ret^0,c
  1274                           
  1275                           ;ECU_Layer/CHR_LCD/ecu_chr_lcd.c: 106:     while(*data)
  1276   001E7A  EF58  F00F         	goto	l7749
  1277   001E7E                     l7745:
  1278                           
  1279                           ;ECU_Layer/CHR_LCD/ecu_chr_lcd.c: 107:         {;ECU_Layer/CHR_LCD/ecu_chr_lcd.c: 108:  
      +                                     ret = lcd_4bit_send_data_char(lcd , *data++);
  1280   001E7E  C05A  F051         	movff	lcd_4bit_send_data_string_posit@lcd,lcd_4bit_send_data_char@lcd
  1281   001E82  C05D  FFF6         	movff	lcd_4bit_send_data_string_posit@data,tblptrl
  1282   001E86  C05E  FFF7         	movff	lcd_4bit_send_data_string_posit@data+1,tblptrh
  1283   001E8A  0E00               	movlw	low (__smallconst shr (0+16))
  1284   001E8C  6EF8               	movwf	tblptru,c
  1285   001E8E  0E0F               	movlw	(high __ramtop+-1)
  1286   001E90  64F7               	cpfsgt	tblptrh,c
  1287   001E92  D003               	bra	u7097
  1288   001E94  0008               	tblrd		*
  1289   001E96  50F5               	movf	tablat,w,c
  1290   001E98  D005               	bra	u7090
  1291   001E9A                     u7097:
  1292   001E9A  CFF6 FFE9          	movff	tblptrl,fsr0l
  1293   001E9E  CFF7 FFEA          	movff	tblptrh,fsr0h
  1294   001EA2  50EF               	movf	indf0,w,c
  1295   001EA4                     u7090:
  1296   001EA4  6E52               	movwf	lcd_4bit_send_data_char@data^0,c
  1297   001EA6  EC45  F010         	call	_lcd_4bit_send_data_char	;wreg free
  1298   001EAA  6E5F               	movwf	lcd_4bit_send_data_string_posit@ret^0,c
  1299   001EAC  4A5D               	infsnz	lcd_4bit_send_data_string_posit@data^0,f,c
  1300   001EAE  2A5E               	incf	(lcd_4bit_send_data_string_posit@data+1)^0,f,c
  1301   001EB0                     l7749:
  1302                           
  1303                           ;ECU_Layer/CHR_LCD/ecu_chr_lcd.c: 106:     while(*data)
  1304   001EB0  C05D  FFF6         	movff	lcd_4bit_send_data_string_posit@data,tblptrl
  1305   001EB4  C05E  FFF7         	movff	lcd_4bit_send_data_string_posit@data+1,tblptrh
  1306   001EB8  0E00               	movlw	low (__smallconst shr (0+16))
  1307   001EBA  6EF8               	movwf	tblptru,c
  1308   001EBC  0E0F               	movlw	(high __ramtop+-1)
  1309   001EBE  64F7               	cpfsgt	tblptrh,c
  1310   001EC0  D003               	bra	u7107
  1311   001EC2  0008               	tblrd		*
  1312   001EC4  50F5               	movf	tablat,w,c
  1313   001EC6  D005               	bra	u7100
  1314   001EC8                     u7107:
  1315   001EC8  CFF6 FFE9          	movff	tblptrl,fsr0l
  1316   001ECC  CFF7 FFEA          	movff	tblptrh,fsr0h
  1317   001ED0  50EF               	movf	indf0,w,c
  1318   001ED2                     u7100:
  1319   001ED2  0900               	iorlw	0
  1320   001ED4  A4D8               	btfss	status,2,c
  1321   001ED6  EF6F  F00F         	goto	u7111
  1322   001EDA  EF71  F00F         	goto	u7110
  1323   001EDE                     u7111:
  1324   001EDE  EF3F  F00F         	goto	l7745
  1325   001EE2                     u7110:
  1326   001EE2                     l7751:
  1327                           
  1328                           ;ECU_Layer/CHR_LCD/ecu_chr_lcd.c: 113:     return ret ;
  1329   001EE2  505F               	movf	lcd_4bit_send_data_string_posit@ret^0,w,c
  1330   001EE4  0012               	return		;funcret
  1331   001EE6                     __end_of_lcd_4bit_send_data_string_posit:
  1332                           	callstack 0
  1333                           
  1334 ;; *************** function _lcd_4bit_send_data_char_posit *****************
  1335 ;; Defined at:
  1336 ;;		line 75 in file "ECU_Layer/CHR_LCD/ecu_chr_lcd.c"
  1337 ;; Parameters:    Size  Location     Type
  1338 ;;  lcd             1   23[COMRAM] PTR const struct .
  1339 ;;		 -> lcd_1(6), 
  1340 ;;  row             1   24[COMRAM] unsigned char 
  1341 ;;  colunm          1   25[COMRAM] unsigned char 
  1342 ;;  data            1   26[COMRAM] unsigned char 
  1343 ;; Auto vars:     Size  Location     Type
  1344 ;;  ret             1   27[COMRAM] unsigned char 
  1345 ;; Return value:  Size  Location     Type
  1346 ;;                  1    wreg      unsigned char 
  1347 ;; Registers used:
  1348 ;;		wreg, fsr2l, fsr2h, status,2, status,0, prodl, prodh, cstack
  1349 ;; Tracked objects:
  1350 ;;		On entry : 0/0
  1351 ;;		On exit  : 0/0
  1352 ;;		Unchanged: 0/0
  1353 ;; Data sizes:     COMRAM   BANK0   BANK1   BANK2   BANK3   BANK4   BANK5   BANK6   BANK7   BANK8   BANK9  BANK10  BANK1
      +1  BANK12  BANK13  BANK14  BANK15
  1354 ;;      Params:         4       0       0       0       0       0       0       0       0       0       0       0       
      +0       0       0       0       0
  1355 ;;      Locals:         1       0       0       0       0       0       0       0       0       0       0       0       
      +0       0       0       0       0
  1356 ;;      Temps:          0       0       0       0       0       0       0       0       0       0       0       0       
      +0       0       0       0       0
  1357 ;;      Totals:         5       0       0       0       0       0       0       0       0       0       0       0       
      +0       0       0       0       0
  1358 ;;Total ram usage:        5 bytes
  1359 ;; Hardware stack levels used: 1
  1360 ;; Hardware stack levels required when called: 7
  1361 ;; This function calls:
  1362 ;;		_lcd_4bit_send_data_char
  1363 ;;		_lcd_set_cursor_4bit
  1364 ;; This function is called by:
  1365 ;;		_main
  1366 ;;		_lcd_4bit_send_custom_char
  1367 ;; This function uses a non-reentrant model
  1368 ;;
  1369                           
  1370                           	psect	text2
  1371   002206                     __ptext2:
  1372                           	callstack 0
  1373   002206                     _lcd_4bit_send_data_char_posit:
  1374                           	callstack 23
  1375   002206                     
  1376                           ;ECU_Layer/CHR_LCD/ecu_chr_lcd.c: 77:     if((((void*)0)==lcd)){
  1377   002206  505A               	movf	lcd_4bit_send_data_char_posit@lcd^0,w,c
  1378   002208  A4D8               	btfss	status,2,c
  1379   00220A  EF09  F011         	goto	u7071
  1380   00220E  EF0B  F011         	goto	u7070
  1381   002212                     u7071:
  1382   002212  EF0F  F011         	goto	l7733
  1383   002216                     u7070:
  1384   002216                     
  1385                           ;ECU_Layer/CHR_LCD/ecu_chr_lcd.c: 78:         ret =(Std_ReturnType)0x00 ;
  1386   002216  0E00               	movlw	0
  1387   002218  6E5E               	movwf	lcd_4bit_send_data_char_posit@ret^0,c
  1388                           
  1389                           ;ECU_Layer/CHR_LCD/ecu_chr_lcd.c: 79:     }else {
  1390   00221A  EF1F  F011         	goto	l7735
  1391   00221E                     l7733:
  1392                           
  1393                           ;ECU_Layer/CHR_LCD/ecu_chr_lcd.c: 81:       ret = lcd_set_cursor_4bit(lcd ,row , colunm)
      +                          ;
  1394   00221E  C05A  F054         	movff	lcd_4bit_send_data_char_posit@lcd,lcd_set_cursor_4bit@lcd
  1395   002222  C05B  F055         	movff	lcd_4bit_send_data_char_posit@row,lcd_set_cursor_4bit@row
  1396   002226  C05C  F056         	movff	lcd_4bit_send_data_char_posit@colunm,lcd_set_cursor_4bit@column
  1397   00222A  ECDA  F00E         	call	_lcd_set_cursor_4bit	;wreg free
  1398   00222E  6E5E               	movwf	lcd_4bit_send_data_char_posit@ret^0,c
  1399                           
  1400                           ;ECU_Layer/CHR_LCD/ecu_chr_lcd.c: 82:         ret = lcd_4bit_send_data_char(lcd , data);
  1401   002230  C05A  F051         	movff	lcd_4bit_send_data_char_posit@lcd,lcd_4bit_send_data_char@lcd
  1402   002234  C05D  F052         	movff	lcd_4bit_send_data_char_posit@data,lcd_4bit_send_data_char@data
  1403   002238  EC45  F010         	call	_lcd_4bit_send_data_char	;wreg free
  1404   00223C  6E5E               	movwf	lcd_4bit_send_data_char_posit@ret^0,c
  1405   00223E                     l7735:
  1406                           
  1407                           ;ECU_Layer/CHR_LCD/ecu_chr_lcd.c: 84:     return ret ;
  1408   00223E  505E               	movf	lcd_4bit_send_data_char_posit@ret^0,w,c
  1409   002240  0012               	return		;funcret
  1410   002242                     __end_of_lcd_4bit_send_data_char_posit:
  1411                           	callstack 0
  1412                           
  1413 ;; *************** function _lcd_set_cursor_4bit *****************
  1414 ;; Defined at:
  1415 ;;		line 326 in file "ECU_Layer/CHR_LCD/ecu_chr_lcd.c"
  1416 ;; Parameters:    Size  Location     Type
  1417 ;;  lcd             1   17[COMRAM] PTR const struct .
  1418 ;;		 -> lcd_1(6), 
  1419 ;;  row             1   18[COMRAM] unsigned char 
  1420 ;;  column          1   19[COMRAM] unsigned char 
  1421 ;; Auto vars:     Size  Location     Type
  1422 ;;  ret             1   22[COMRAM] unsigned char 
  1423 ;; Return value:  Size  Location     Type
  1424 ;;                  1    wreg      unsigned char 
  1425 ;; Registers used:
  1426 ;;		wreg, fsr2l, fsr2h, status,2, status,0, prodl, prodh, cstack
  1427 ;; Tracked objects:
  1428 ;;		On entry : 0/0
  1429 ;;		On exit  : 0/0
  1430 ;;		Unchanged: 0/0
  1431 ;; Data sizes:     COMRAM   BANK0   BANK1   BANK2   BANK3   BANK4   BANK5   BANK6   BANK7   BANK8   BANK9  BANK10  BANK1
      +1  BANK12  BANK13  BANK14  BANK15
  1432 ;;      Params:         3       0       0       0       0       0       0       0       0       0       0       0       
      +0       0       0       0       0
  1433 ;;      Locals:         1       0       0       0       0       0       0       0       0       0       0       0       
      +0       0       0       0       0
  1434 ;;      Temps:          2       0       0       0       0       0       0       0       0       0       0       0       
      +0       0       0       0       0
  1435 ;;      Totals:         6       0       0       0       0       0       0       0       0       0       0       0       
      +0       0       0       0       0
  1436 ;;Total ram usage:        6 bytes
  1437 ;; Hardware stack levels used: 1
  1438 ;; Hardware stack levels required when called: 6
  1439 ;; This function calls:
  1440 ;;		_lcd_4bit_send_command
  1441 ;; This function is called by:
  1442 ;;		_lcd_4bit_send_data_char_posit
  1443 ;;		_lcd_4bit_send_data_string_posit
  1444 ;; This function uses a non-reentrant model
  1445 ;;
  1446                           
  1447                           	psect	text3
  1448   001DB4                     __ptext3:
  1449                           	callstack 0
  1450   001DB4                     _lcd_set_cursor_4bit:
  1451                           	callstack 23
  1452   001DB4                     
  1453                           ;ECU_Layer/CHR_LCD/ecu_chr_lcd.c: 328:          column-- ;
  1454   001DB4  0656               	decf	lcd_set_cursor_4bit@column^0,f,c
  1455                           
  1456                           ;ECU_Layer/CHR_LCD/ecu_chr_lcd.c: 329:         switch(row){
  1457   001DB6  EF09  F00F         	goto	l7627
  1458   001DBA                     l7617:
  1459   001DBA  C054  F051         	movff	lcd_set_cursor_4bit@lcd,lcd_4bit_send_command@lcd
  1460   001DBE  5056               	movf	lcd_set_cursor_4bit@column^0,w,c
  1461   001DC0  0F80               	addlw	128
  1462   001DC2  6E52               	movwf	lcd_4bit_send_command@command^0,c
  1463   001DC4  EC73  F010         	call	_lcd_4bit_send_command	;wreg free
  1464   001DC8  6E59               	movwf	lcd_set_cursor_4bit@ret^0,c
  1465   001DCA  EF26  F00F         	goto	l7629
  1466   001DCE                     l7619:
  1467   001DCE  C054  F051         	movff	lcd_set_cursor_4bit@lcd,lcd_4bit_send_command@lcd
  1468   001DD2  5056               	movf	lcd_set_cursor_4bit@column^0,w,c
  1469   001DD4  0FC0               	addlw	192
  1470   001DD6  6E52               	movwf	lcd_4bit_send_command@command^0,c
  1471   001DD8  EC73  F010         	call	_lcd_4bit_send_command	;wreg free
  1472   001DDC  6E59               	movwf	lcd_set_cursor_4bit@ret^0,c
  1473   001DDE  EF26  F00F         	goto	l7629
  1474   001DE2                     l7621:
  1475   001DE2  C054  F051         	movff	lcd_set_cursor_4bit@lcd,lcd_4bit_send_command@lcd
  1476   001DE6  5056               	movf	lcd_set_cursor_4bit@column^0,w,c
  1477   001DE8  0F90               	addlw	144
  1478   001DEA  6E52               	movwf	lcd_4bit_send_command@command^0,c
  1479   001DEC  EC73  F010         	call	_lcd_4bit_send_command	;wreg free
  1480   001DF0  6E59               	movwf	lcd_set_cursor_4bit@ret^0,c
  1481   001DF2  EF26  F00F         	goto	l7629
  1482   001DF6                     l7623:
  1483   001DF6  C054  F051         	movff	lcd_set_cursor_4bit@lcd,lcd_4bit_send_command@lcd
  1484   001DFA  5056               	movf	lcd_set_cursor_4bit@column^0,w,c
  1485   001DFC  0FD0               	addlw	208
  1486   001DFE  6E52               	movwf	lcd_4bit_send_command@command^0,c
  1487   001E00  EC73  F010         	call	_lcd_4bit_send_command	;wreg free
  1488   001E04  6E59               	movwf	lcd_set_cursor_4bit@ret^0,c
  1489   001E06  EF26  F00F         	goto	l7629
  1490   001E0A                     l7625:
  1491                           
  1492                           ;ECU_Layer/CHR_LCD/ecu_chr_lcd.c: 337:         ret= (Std_ReturnType)0x01 ;
  1493   001E0A  0E01               	movlw	1
  1494   001E0C  6E59               	movwf	lcd_set_cursor_4bit@ret^0,c
  1495                           
  1496                           ;ECU_Layer/CHR_LCD/ecu_chr_lcd.c: 338:     }
  1497   001E0E  EF26  F00F         	goto	l7629
  1498   001E12                     l7627:
  1499   001E12  5055               	movf	lcd_set_cursor_4bit@row^0,w,c
  1500   001E14  6E57               	movwf	??_lcd_set_cursor_4bit^0,c
  1501   001E16  6A58               	clrf	(??_lcd_set_cursor_4bit+1)^0,c
  1502                           
  1503                           ; Switch on 2 bytes has been partitioned into a top level switch of size 1, and 1 sub-sw
      +                          itches
  1504                           ; Switch size 1, requested type "simple"
  1505                           ; Number of cases is 1, Range of values is 0 to 0
  1506                           ; switch strategies available:
  1507                           ; Name         Instructions Cycles
  1508                           ; simple_byte            4     3 (average)
  1509                           ;	Chosen strategy is simple_byte
  1510   001E18  5058               	movf	(??_lcd_set_cursor_4bit+1)^0,w,c
  1511   001E1A  0A00               	xorlw	0	; case 0
  1512   001E1C  B4D8               	btfsc	status,2,c
  1513   001E1E  EF13  F00F         	goto	l8553
  1514   001E22  EF05  F00F         	goto	l7625
  1515   001E26                     l8553:
  1516                           
  1517                           ; Switch size 1, requested type "simple"
  1518                           ; Number of cases is 4, Range of values is 1 to 4
  1519                           ; switch strategies available:
  1520                           ; Name         Instructions Cycles
  1521                           ; simple_byte           13     7 (average)
  1522                           ;	Chosen strategy is simple_byte
  1523   001E26  5057               	movf	??_lcd_set_cursor_4bit^0,w,c
  1524   001E28  0A01               	xorlw	1	; case 1
  1525   001E2A  B4D8               	btfsc	status,2,c
  1526   001E2C  EFDD  F00E         	goto	l7617
  1527   001E30  0A03               	xorlw	3	; case 2
  1528   001E32  B4D8               	btfsc	status,2,c
  1529   001E34  EFE7  F00E         	goto	l7619
  1530   001E38  0A01               	xorlw	1	; case 3
  1531   001E3A  B4D8               	btfsc	status,2,c
  1532   001E3C  EFF1  F00E         	goto	l7621
  1533   001E40  0A07               	xorlw	7	; case 4
  1534   001E42  B4D8               	btfsc	status,2,c
  1535   001E44  EFFB  F00E         	goto	l7623
  1536   001E48  EF05  F00F         	goto	l7625
  1537   001E4C                     l7629:
  1538                           
  1539                           ;ECU_Layer/CHR_LCD/ecu_chr_lcd.c: 339:     return ret ;
  1540   001E4C  5059               	movf	lcd_set_cursor_4bit@ret^0,w,c
  1541   001E4E  0012               	return		;funcret
  1542   001E50                     __end_of_lcd_set_cursor_4bit:
  1543                           	callstack 0
  1544                           
  1545 ;; *************** function _lcd_4bit_send_data_char *****************
  1546 ;; Defined at:
  1547 ;;		line 60 in file "ECU_Layer/CHR_LCD/ecu_chr_lcd.c"
  1548 ;; Parameters:    Size  Location     Type
  1549 ;;  lcd             1   14[COMRAM] PTR const struct .
  1550 ;;		 -> lcd_1(6), 
  1551 ;;  data            1   15[COMRAM] unsigned char 
  1552 ;; Auto vars:     Size  Location     Type
  1553 ;;  ret             1   16[COMRAM] unsigned char 
  1554 ;; Return value:  Size  Location     Type
  1555 ;;                  1    wreg      unsigned char 
  1556 ;; Registers used:
  1557 ;;		wreg, fsr2l, fsr2h, status,2, status,0, prodl, prodh, cstack
  1558 ;; Tracked objects:
  1559 ;;		On entry : 0/0
  1560 ;;		On exit  : 0/0
  1561 ;;		Unchanged: 0/0
  1562 ;; Data sizes:     COMRAM   BANK0   BANK1   BANK2   BANK3   BANK4   BANK5   BANK6   BANK7   BANK8   BANK9  BANK10  BANK1
      +1  BANK12  BANK13  BANK14  BANK15
  1563 ;;      Params:         2       0       0       0       0       0       0       0       0       0       0       0       
      +0       0       0       0       0
  1564 ;;      Locals:         1       0       0       0       0       0       0       0       0       0       0       0       
      +0       0       0       0       0
  1565 ;;      Temps:          0       0       0       0       0       0       0       0       0       0       0       0       
      +0       0       0       0       0
  1566 ;;      Totals:         3       0       0       0       0       0       0       0       0       0       0       0       
      +0       0       0       0       0
  1567 ;;Total ram usage:        3 bytes
  1568 ;; Hardware stack levels used: 1
  1569 ;; Hardware stack levels required when called: 5
  1570 ;; This function calls:
  1571 ;;		_gpio_pin_write_logic
  1572 ;;		_lcd_send_4bit_command_data
  1573 ;;		_lcd_send_4bit_enable
  1574 ;; This function is called by:
  1575 ;;		_lcd_4bit_send_data_char_posit
  1576 ;;		_lcd_4bit_send_data_string_posit
  1577 ;;		_lcd_4bit_send_data_string
  1578 ;;		_lcd_4bit_send_custom_char
  1579 ;; This function uses a non-reentrant model
  1580 ;;
  1581                           
  1582                           	psect	text4
  1583   00208A                     __ptext4:
  1584                           	callstack 0
  1585   00208A                     _lcd_4bit_send_data_char:
  1586                           	callstack 24
  1587   00208A                     
  1588                           ;ECU_Layer/CHR_LCD/ecu_chr_lcd.c: 62:     if((((void*)0)==lcd)){
  1589   00208A  5051               	movf	lcd_4bit_send_data_char@lcd^0,w,c
  1590   00208C  A4D8               	btfss	status,2,c
  1591   00208E  EF4B  F010         	goto	u7001
  1592   002092  EF4D  F010         	goto	u7000
  1593   002096                     u7001:
  1594   002096  EF51  F010         	goto	l7607
  1595   00209A                     u7000:
  1596   00209A                     
  1597                           ;ECU_Layer/CHR_LCD/ecu_chr_lcd.c: 63:         ret =(Std_ReturnType)0x00 ;
  1598   00209A  0E00               	movlw	0
  1599   00209C  6E53               	movwf	lcd_4bit_send_data_char@ret^0,c
  1600                           
  1601                           ;ECU_Layer/CHR_LCD/ecu_chr_lcd.c: 64:     }else {
  1602   00209E  EF71  F010         	goto	l7609
  1603   0020A2                     l7607:
  1604                           
  1605                           ;ECU_Layer/CHR_LCD/ecu_chr_lcd.c: 65:        ret = gpio_pin_write_logic(&(lcd->pin_Rs) ,
      +                           LOGIC_HIGH);
  1606   0020A2  C051  F046         	movff	lcd_4bit_send_data_char@lcd,gpio_pin_write_logic@_pin_t
  1607   0020A6  0E01               	movlw	1
  1608   0020A8  6E47               	movwf	gpio_pin_write_logic@logic^0,c
  1609   0020AA  EC85  F00C         	call	_gpio_pin_write_logic	;wreg free
  1610   0020AE  6E53               	movwf	lcd_4bit_send_data_char@ret^0,c
  1611                           
  1612                           ;ECU_Layer/CHR_LCD/ecu_chr_lcd.c: 66:         ret = lcd_send_4bit_command_data((lcd) , d
      +                          ata >> 4);
  1613   0020B0  C051  F04E         	movff	lcd_4bit_send_data_char@lcd,lcd_send_4bit_command_data@lcd
  1614   0020B4  3852               	swapf	lcd_4bit_send_data_char@data^0,w,c
  1615   0020B6  0B0F               	andlw	15
  1616   0020B8  6E4F               	movwf	lcd_send_4bit_command_data@data^0,c
  1617   0020BA  ECAE  F00F         	call	_lcd_send_4bit_command_data	;wreg free
  1618   0020BE  6E53               	movwf	lcd_4bit_send_data_char@ret^0,c
  1619                           
  1620                           ;ECU_Layer/CHR_LCD/ecu_chr_lcd.c: 67:         ret = lcd_send_4bit_enable((lcd));
  1621   0020C0  C051  F04E         	movff	lcd_4bit_send_data_char@lcd,lcd_send_4bit_enable@lcd
  1622   0020C4  ECE3  F010         	call	_lcd_send_4bit_enable	;wreg free
  1623   0020C8  6E53               	movwf	lcd_4bit_send_data_char@ret^0,c
  1624                           
  1625                           ;ECU_Layer/CHR_LCD/ecu_chr_lcd.c: 68:         ret = lcd_send_4bit_command_data((lcd) , d
      +                          ata);
  1626   0020CA  C051  F04E         	movff	lcd_4bit_send_data_char@lcd,lcd_send_4bit_command_data@lcd
  1627   0020CE  C052  F04F         	movff	lcd_4bit_send_data_char@data,lcd_send_4bit_command_data@data
  1628   0020D2  ECAE  F00F         	call	_lcd_send_4bit_command_data	;wreg free
  1629   0020D6  6E53               	movwf	lcd_4bit_send_data_char@ret^0,c
  1630                           
  1631                           ;ECU_Layer/CHR_LCD/ecu_chr_lcd.c: 69:         ret = lcd_send_4bit_enable((lcd));
  1632   0020D8  C051  F04E         	movff	lcd_4bit_send_data_char@lcd,lcd_send_4bit_enable@lcd
  1633   0020DC  ECE3  F010         	call	_lcd_send_4bit_enable	;wreg free
  1634   0020E0  6E53               	movwf	lcd_4bit_send_data_char@ret^0,c
  1635   0020E2                     l7609:
  1636                           
  1637                           ;ECU_Layer/CHR_LCD/ecu_chr_lcd.c: 71:     return ret ;
  1638   0020E2  5053               	movf	lcd_4bit_send_data_char@ret^0,w,c
  1639   0020E4  0012               	return		;funcret
  1640   0020E6                     __end_of_lcd_4bit_send_data_char:
  1641                           	callstack 0
  1642                           
  1643 ;; *************** function _interrupt_init1 *****************
  1644 ;; Defined at:
  1645 ;;		line 50 in file "application.c"
  1646 ;; Parameters:    Size  Location     Type
  1647 ;;		None
  1648 ;; Auto vars:     Size  Location     Type
  1649 ;;		None
  1650 ;; Return value:  Size  Location     Type
  1651 ;;                  1    wreg      void 
  1652 ;; Registers used:
  1653 ;;		wreg, fsr2l, fsr2h, status,2, status,0, cstack
  1654 ;; Tracked objects:
  1655 ;;		On entry : 0/0
  1656 ;;		On exit  : 0/0
  1657 ;;		Unchanged: 0/0
  1658 ;; Data sizes:     COMRAM   BANK0   BANK1   BANK2   BANK3   BANK4   BANK5   BANK6   BANK7   BANK8   BANK9  BANK10  BANK1
      +1  BANK12  BANK13  BANK14  BANK15
  1659 ;;      Params:         0       0       0       0       0       0       0       0       0       0       0       0       
      +0       0       0       0       0
  1660 ;;      Locals:         0       0       0       0       0       0       0       0       0       0       0       0       
      +0       0       0       0       0
  1661 ;;      Temps:          0       0       0       0       0       0       0       0       0       0       0       0       
      +0       0       0       0       0
  1662 ;;      Totals:         0       0       0       0       0       0       0       0       0       0       0       0       
      +0       0       0       0       0
  1663 ;;Total ram usage:        0 bytes
  1664 ;; Hardware stack levels used: 1
  1665 ;; Hardware stack levels required when called: 5
  1666 ;; This function calls:
  1667 ;;		_TMR1_Init
  1668 ;; This function is called by:
  1669 ;;		_main
  1670 ;; This function uses a non-reentrant model
  1671 ;;
  1672                           
  1673                           	psect	text5
  1674   002384                     __ptext5:
  1675                           	callstack 0
  1676   002384                     _interrupt_init1:
  1677                           	callstack 25
  1678   002384                     
  1679                           ;application.c: 51: int1.Prescaler_value = TIMER1_PRESCALER_DIV_8 ;
  1680   002384  0E03               	movlw	3
  1681   002386  0100               	movlb	0	; () banked
  1682   002388  6FB5               	movwf	(_int1+3)& (0+255),b
  1683   00238A                     
  1684                           ; BSR set to: 0
  1685                           ;application.c: 52: int1.TIMER1_INTERRUPT_HANDLER = TMR_Isr ;
  1686   00238A  0E6C               	movlw	low _TMR_Isr
  1687   00238C  6FB2               	movwf	_int1& (0+255),b
  1688   00238E  0E24               	movlw	high _TMR_Isr
  1689   002390  6FB3               	movwf	(_int1+1)& (0+255),b
  1690   002392                     
  1691                           ; BSR set to: 0
  1692                           ;application.c: 54: int1.timer1_mode = 0 ;
  1693   002392  91B8               	bcf	(_int1+6)& (0+255),0,b
  1694   002394                     
  1695                           ; BSR set to: 0
  1696                           ;application.c: 55: int1.timer1_osc_cfg = 0 ;
  1697   002394  93B8               	bcf	(_int1+6)& (0+255),1,b
  1698   002396                     
  1699                           ; BSR set to: 0
  1700                           ;application.c: 56: int1.timer1_preload_value = 3536 ;
  1701   002396  0E0D               	movlw	13
  1702   002398  6FB7               	movwf	(_int1+5)& (0+255),b
  1703   00239A  0ED0               	movlw	208
  1704   00239C  6FB6               	movwf	(_int1+4)& (0+255),b
  1705   00239E                     
  1706                           ; BSR set to: 0
  1707                           ;application.c: 57: int1.timer1_register_size = 1 ;
  1708   00239E  85B8               	bsf	(_int1+6)& (0+255),2,b
  1709   0023A0                     
  1710                           ; BSR set to: 0
  1711                           ;application.c: 58: TMR1_Init(&int1);
  1712   0023A0  0EB2               	movlw	low _int1
  1713   0023A2  6E47               	movwf	TMR1_Init@TMR^0,c
  1714   0023A4  EC8B  F00E         	call	_TMR1_Init	;wreg free
  1715   0023A8  0012               	return		;funcret
  1716   0023AA                     __end_of_interrupt_init1:
  1717                           	callstack 0
  1718                           
  1719 ;; *************** function _TMR1_Init *****************
  1720 ;; Defined at:
  1721 ;;		line 23 in file "MCAL_Layer/TIMER1/hal_timer1.c"
  1722 ;; Parameters:    Size  Location     Type
  1723 ;;  TMR             1    4[COMRAM] PTR const struct .
  1724 ;;		 -> int1(7), 
  1725 ;; Auto vars:     Size  Location     Type
  1726 ;;  ret             1    0        unsigned char 
  1727 ;; Return value:  Size  Location     Type
  1728 ;;                  1    wreg      unsigned char 
  1729 ;; Registers used:
  1730 ;;		wreg, fsr2l, fsr2h, status,2, status,0, cstack
  1731 ;; Tracked objects:
  1732 ;;		On entry : 0/0
  1733 ;;		On exit  : 0/0
  1734 ;;		Unchanged: 0/0
  1735 ;; Data sizes:     COMRAM   BANK0   BANK1   BANK2   BANK3   BANK4   BANK5   BANK6   BANK7   BANK8   BANK9  BANK10  BANK1
      +1  BANK12  BANK13  BANK14  BANK15
  1736 ;;      Params:         1       0       0       0       0       0       0       0       0       0       0       0       
      +0       0       0       0       0
  1737 ;;      Locals:         0       0       0       0       0       0       0       0       0       0       0       0       
      +0       0       0       0       0
  1738 ;;      Temps:          2       0       0       0       0       0       0       0       0       0       0       0       
      +0       0       0       0       0
  1739 ;;      Totals:         3       0       0       0       0       0       0       0       0       0       0       0       
      +0       0       0       0       0
  1740 ;;Total ram usage:        3 bytes
  1741 ;; Hardware stack levels used: 1
  1742 ;; Hardware stack levels required when called: 4
  1743 ;; This function calls:
  1744 ;;		_MODE_configure@hal_timer1$F3917
  1745 ;;		_OSC_configure
  1746 ;;		_register_configure@hal_timer1$F3923
  1747 ;; This function is called by:
  1748 ;;		_interrupt_init1
  1749 ;; This function uses a non-reentrant model
  1750 ;;
  1751                           
  1752                           	psect	text6
  1753   001D16                     __ptext6:
  1754                           	callstack 0
  1755   001D16                     _TMR1_Init:
  1756                           	callstack 25
  1757   001D16                     
  1758                           ;MCAL_Layer/TIMER1/hal_timer1.c: 25:     if(((void*)0) == TMR){
  1759   001D16  5047               	movf	TMR1_Init@TMR^0,w,c
  1760   001D18  A4D8               	btfss	status,2,c
  1761   001D1A  EF91  F00E         	goto	u7061
  1762   001D1E  EF93  F00E         	goto	u7060
  1763   001D22                     u7061:
  1764   001D22  EF95  F00E         	goto	l1563
  1765   001D26                     u7060:
  1766   001D26                     
  1767                           ;MCAL_Layer/TIMER1/hal_timer1.c: 27:     }else
  1768   001D26  EFD9  F00E         	goto	l1565
  1769   001D2A                     l1563:
  1770                           
  1771                           ;MCAL_Layer/TIMER1/hal_timer1.c: 28:     {;MCAL_Layer/TIMER1/hal_timer1.c: 30:         (
      +                          T1CONbits.TMR1ON = 0);
  1772   001D2A  90CD               	bcf	205,0,c	;volatile
  1773   001D2C                     
  1774                           ;MCAL_Layer/TIMER1/hal_timer1.c: 31:         MODE_configure(TMR);
  1775   001D2C  C047  F046         	movff	TMR1_Init@TMR,MODE_configure@hal_timer1$F3917@TMR
  1776   001D30  EC73  F00F         	call	_MODE_configure@hal_timer1$F3917	;wreg free
  1777                           
  1778                           ;MCAL_Layer/TIMER1/hal_timer1.c: 32:         register_configure(TMR);
  1779   001D34  C047  F046         	movff	TMR1_Init@TMR,register_configure@hal_timer1$F3923@TMR
  1780   001D38  EC21  F011         	call	_register_configure@hal_timer1$F3923	;wreg free
  1781                           
  1782                           ;MCAL_Layer/TIMER1/hal_timer1.c: 33:         OSC_configure(TMR);
  1783   001D3C  C047  F046         	movff	TMR1_Init@TMR,OSC_configure@TMR
  1784   001D40  EC3E  F011         	call	_OSC_configure	;wreg free
  1785   001D44                     
  1786                           ;MCAL_Layer/TIMER1/hal_timer1.c: 34:         (T1CONbits.T1CKPS = TMR->Prescaler_value);
  1787   001D44  5047               	movf	TMR1_Init@TMR^0,w,c
  1788   001D46  6ED9               	movwf	fsr2l,c
  1789   001D48  6ADA               	clrf	fsr2h,c
  1790   001D4A  0E03               	movlw	3
  1791   001D4C  26D9               	addwf	fsr2l,f,c
  1792   001D4E  50DF               	movf	indf2,w,c
  1793   001D50  6E48               	movwf	??_TMR1_Init^0,c
  1794   001D52  3A48               	swapf	??_TMR1_Init^0,f,c
  1795   001D54  50CD               	movf	205,w,c	;volatile
  1796   001D56  1848               	xorwf	??_TMR1_Init^0,w,c
  1797   001D58  0BCF               	andlw	-49
  1798   001D5A  1848               	xorwf	??_TMR1_Init^0,w,c
  1799   001D5C  6ECD               	movwf	205,c	;volatile
  1800   001D5E                     
  1801                           ;MCAL_Layer/TIMER1/hal_timer1.c: 35:         TMR1H = ((TMR->timer1_preload_value)>>8);
  1802   001D5E  5047               	movf	TMR1_Init@TMR^0,w,c
  1803   001D60  6ED9               	movwf	fsr2l,c
  1804   001D62  6ADA               	clrf	fsr2h,c
  1805   001D64  0E04               	movlw	4
  1806   001D66  26D9               	addwf	fsr2l,f,c
  1807   001D68  CFDE F048          	movff	postinc2,??_TMR1_Init
  1808   001D6C  CFDD F049          	movff	postdec2,??_TMR1_Init+1
  1809   001D70  C049  F048         	movff	??_TMR1_Init+1,??_TMR1_Init
  1810   001D74  6A49               	clrf	(??_TMR1_Init+1)^0,c
  1811   001D76  5048               	movf	??_TMR1_Init^0,w,c
  1812   001D78  6ECF               	movwf	207,c	;volatile
  1813   001D7A                     
  1814                           ;MCAL_Layer/TIMER1/hal_timer1.c: 36:         TMR1L = (uint8)(TMR->timer1_preload_value);
  1815   001D7A  5047               	movf	TMR1_Init@TMR^0,w,c
  1816   001D7C  6ED9               	movwf	fsr2l,c
  1817   001D7E  6ADA               	clrf	fsr2h,c
  1818   001D80  0E04               	movlw	4
  1819   001D82  26D9               	addwf	fsr2l,f,c
  1820   001D84  50DF               	movf	indf2,w,c
  1821   001D86  6ECE               	movwf	206,c	;volatile
  1822   001D88                     
  1823                           ;MCAL_Layer/TIMER1/hal_timer1.c: 37:         preload_value= TMR->timer1_preload_value ;
  1824   001D88  5047               	movf	TMR1_Init@TMR^0,w,c
  1825   001D8A  6ED9               	movwf	fsr2l,c
  1826   001D8C  6ADA               	clrf	fsr2h,c
  1827   001D8E  0E04               	movlw	4
  1828   001D90  26D9               	addwf	fsr2l,f,c
  1829   001D92  CFDE F005          	movff	postinc2,_preload_value@hal_timer1$F3998	;volatile
  1830   001D96  CFDD F006          	movff	postdec2,_preload_value@hal_timer1$F3998+1	;volatile
  1831   001D9A                     
  1832                           ;MCAL_Layer/TIMER1/hal_timer1.c: 39:         (PIE1bits.TMR1IE =1);
  1833   001D9A  809D               	bsf	157,0,c	;volatile
  1834   001D9C                     
  1835                           ;MCAL_Layer/TIMER1/hal_timer1.c: 40:         (PIR1bits.TMR1IF = 0 );
  1836   001D9C  909E               	bcf	158,0,c	;volatile
  1837   001D9E                     
  1838                           ;MCAL_Layer/TIMER1/hal_timer1.c: 41:         TIMER1_INTERRUPPT_HANDLERF = TMR->TIMER1_IN
      +                          TERRUPT_HANDLER ;
  1839   001D9E  5047               	movf	TMR1_Init@TMR^0,w,c
  1840   001DA0  6ED9               	movwf	fsr2l,c
  1841   001DA2  6ADA               	clrf	fsr2h,c
  1842   001DA4  CFDE F003          	movff	postinc2,_TIMER1_INTERRUPPT_HANDLERF
  1843   001DA8  CFDD F004          	movff	postdec2,_TIMER1_INTERRUPPT_HANDLERF+1
  1844   001DAC                     
  1845                           ;MCAL_Layer/TIMER1/hal_timer1.c: 54:         (INTCONbits.PEIE = 1);
  1846   001DAC  8CF2               	bsf	242,6,c	;volatile
  1847   001DAE                     
  1848                           ;MCAL_Layer/TIMER1/hal_timer1.c: 55:         (INTCONbits.GIE = 1);
  1849   001DAE  8EF2               	bsf	242,7,c	;volatile
  1850   001DB0                     
  1851                           ;MCAL_Layer/TIMER1/hal_timer1.c: 58:         (T1CONbits.TMR1ON = 1);
  1852   001DB0  80CD               	bsf	205,0,c	;volatile
  1853   001DB2                     l1565:
  1854   001DB2  0012               	return		;funcret
  1855   001DB4                     __end_of_TMR1_Init:
  1856                           	callstack 0
  1857                           
  1858 ;; *************** function _register_configure@hal_timer1$F3923 *****************
  1859 ;; Defined at:
  1860 ;;		line 138 in file "MCAL_Layer/TIMER1/hal_timer1.c"
  1861 ;; Parameters:    Size  Location     Type
  1862 ;;  TMR             1    3[COMRAM] PTR const struct .
  1863 ;;		 -> int1(7), 
  1864 ;; Auto vars:     Size  Location     Type
  1865 ;;		None
  1866 ;; Return value:  Size  Location     Type
  1867 ;;                  1    wreg      void 
  1868 ;; Registers used:
  1869 ;;		wreg, fsr2l, fsr2h, status,2, status,0
  1870 ;; Tracked objects:
  1871 ;;		On entry : 0/0
  1872 ;;		On exit  : 0/0
  1873 ;;		Unchanged: 0/0
  1874 ;; Data sizes:     COMRAM   BANK0   BANK1   BANK2   BANK3   BANK4   BANK5   BANK6   BANK7   BANK8   BANK9  BANK10  BANK1
      +1  BANK12  BANK13  BANK14  BANK15
  1875 ;;      Params:         1       0       0       0       0       0       0       0       0       0       0       0       
      +0       0       0       0       0
  1876 ;;      Locals:         0       0       0       0       0       0       0       0       0       0       0       0       
      +0       0       0       0       0
  1877 ;;      Temps:          0       0       0       0       0       0       0       0       0       0       0       0       
      +0       0       0       0       0
  1878 ;;      Totals:         1       0       0       0       0       0       0       0       0       0       0       0       
      +0       0       0       0       0
  1879 ;;Total ram usage:        1 bytes
  1880 ;; Hardware stack levels used: 1
  1881 ;; Hardware stack levels required when called: 3
  1882 ;; This function calls:
  1883 ;;		Nothing
  1884 ;; This function is called by:
  1885 ;;		_TMR1_Init
  1886 ;; This function uses a non-reentrant model
  1887 ;;
  1888                           
  1889                           	psect	text7
  1890   002242                     __ptext7:
  1891                           	callstack 0
  1892   002242                     _register_configure@hal_timer1$F3923:
  1893                           	callstack 25
  1894   002242                     
  1895                           ;MCAL_Layer/TIMER1/hal_timer1.c: 139:     if(1 == TMR->timer1_register_size){
  1896   002242  5046               	movf	register_configure@hal_timer1$F3923@TMR^0,w,c
  1897   002244  6ED9               	movwf	fsr2l,c
  1898   002246  6ADA               	clrf	fsr2h,c
  1899   002248  0E06               	movlw	6
  1900   00224A  26D9               	addwf	fsr2l,f,c
  1901   00224C  A4DF               	btfss	indf2,2,c
  1902   00224E  EF2B  F011         	goto	u6931
  1903   002252  EF2D  F011         	goto	u6930
  1904   002256                     u6931:
  1905   002256  EF30  F011         	goto	l7539
  1906   00225A                     u6930:
  1907   00225A                     
  1908                           ;MCAL_Layer/TIMER1/hal_timer1.c: 140:     (T1CONbits.RD16 = 1) ;
  1909   00225A  8ECD               	bsf	205,7,c	;volatile
  1910                           
  1911                           ;MCAL_Layer/TIMER1/hal_timer1.c: 141:     }else if(0 == TMR->timer1_register_size){
  1912   00225C  EF3D  F011         	goto	l1603
  1913   002260                     l7539:
  1914   002260  5046               	movf	register_configure@hal_timer1$F3923@TMR^0,w,c
  1915   002262  6ED9               	movwf	fsr2l,c
  1916   002264  6ADA               	clrf	fsr2h,c
  1917   002266  0E06               	movlw	6
  1918   002268  26D9               	addwf	fsr2l,f,c
  1919   00226A  B4DF               	btfsc	indf2,2,c
  1920   00226C  EF3A  F011         	goto	u6941
  1921   002270  EF3C  F011         	goto	u6940
  1922   002274                     u6941:
  1923   002274  EF3D  F011         	goto	l1603
  1924   002278                     u6940:
  1925   002278                     
  1926                           ;MCAL_Layer/TIMER1/hal_timer1.c: 142:     (T1CONbits.RD16 = 0) ;
  1927   002278  9ECD               	bcf	205,7,c	;volatile
  1928   00227A                     l1603:
  1929   00227A  0012               	return		;funcret
  1930   00227C                     __end_of_register_configure@hal_timer1$F3923:
  1931                           	callstack 0
  1932                           
  1933 ;; *************** function _OSC_configure *****************
  1934 ;; Defined at:
  1935 ;;		line 148 in file "MCAL_Layer/TIMER1/hal_timer1.c"
  1936 ;; Parameters:    Size  Location     Type
  1937 ;;  TMR             1    3[COMRAM] PTR const struct .
  1938 ;;		 -> int1(7), 
  1939 ;; Auto vars:     Size  Location     Type
  1940 ;;		None
  1941 ;; Return value:  Size  Location     Type
  1942 ;;                  1    wreg      void 
  1943 ;; Registers used:
  1944 ;;		wreg, fsr2l, fsr2h, status,2, status,0
  1945 ;; Tracked objects:
  1946 ;;		On entry : 0/0
  1947 ;;		On exit  : 0/0
  1948 ;;		Unchanged: 0/0
  1949 ;; Data sizes:     COMRAM   BANK0   BANK1   BANK2   BANK3   BANK4   BANK5   BANK6   BANK7   BANK8   BANK9  BANK10  BANK1
      +1  BANK12  BANK13  BANK14  BANK15
  1950 ;;      Params:         1       0       0       0       0       0       0       0       0       0       0       0       
      +0       0       0       0       0
  1951 ;;      Locals:         0       0       0       0       0       0       0       0       0       0       0       0       
      +0       0       0       0       0
  1952 ;;      Temps:          0       0       0       0       0       0       0       0       0       0       0       0       
      +0       0       0       0       0
  1953 ;;      Totals:         1       0       0       0       0       0       0       0       0       0       0       0       
      +0       0       0       0       0
  1954 ;;Total ram usage:        1 bytes
  1955 ;; Hardware stack levels used: 1
  1956 ;; Hardware stack levels required when called: 3
  1957 ;; This function calls:
  1958 ;;		Nothing
  1959 ;; This function is called by:
  1960 ;;		_TMR1_Init
  1961 ;; This function uses a non-reentrant model
  1962 ;;
  1963                           
  1964                           	psect	text8
  1965   00227C                     __ptext8:
  1966                           	callstack 0
  1967   00227C                     _OSC_configure:
  1968                           	callstack 25
  1969   00227C                     
  1970                           ;MCAL_Layer/TIMER1/hal_timer1.c: 149:     if(1 == TMR->timer1_osc_cfg){
  1971   00227C  5046               	movf	OSC_configure@TMR^0,w,c
  1972   00227E  6ED9               	movwf	fsr2l,c
  1973   002280  6ADA               	clrf	fsr2h,c
  1974   002282  0E06               	movlw	6
  1975   002284  26D9               	addwf	fsr2l,f,c
  1976   002286  A2DF               	btfss	indf2,1,c
  1977   002288  EF48  F011         	goto	u6951
  1978   00228C  EF4A  F011         	goto	u6950
  1979   002290                     u6951:
  1980   002290  EF4D  F011         	goto	l7547
  1981   002294                     u6950:
  1982   002294                     
  1983                           ;MCAL_Layer/TIMER1/hal_timer1.c: 150:         (T1CONbits.T1OSCEN = 1);
  1984   002294  86CD               	bsf	205,3,c	;volatile
  1985                           
  1986                           ;MCAL_Layer/TIMER1/hal_timer1.c: 152:     }else if(0 == TMR->timer1_osc_cfg){
  1987   002296  EF5A  F011         	goto	l1610
  1988   00229A                     l7547:
  1989   00229A  5046               	movf	OSC_configure@TMR^0,w,c
  1990   00229C  6ED9               	movwf	fsr2l,c
  1991   00229E  6ADA               	clrf	fsr2h,c
  1992   0022A0  0E06               	movlw	6
  1993   0022A2  26D9               	addwf	fsr2l,f,c
  1994   0022A4  B2DF               	btfsc	indf2,1,c
  1995   0022A6  EF57  F011         	goto	u6961
  1996   0022AA  EF59  F011         	goto	u6960
  1997   0022AE                     u6961:
  1998   0022AE  EF5A  F011         	goto	l1610
  1999   0022B2                     u6960:
  2000   0022B2                     
  2001                           ;MCAL_Layer/TIMER1/hal_timer1.c: 153:     (T1CONbits.T1OSCEN = 0);
  2002   0022B2  96CD               	bcf	205,3,c	;volatile
  2003   0022B4                     l1610:
  2004   0022B4  0012               	return		;funcret
  2005   0022B6                     __end_of_OSC_configure:
  2006                           	callstack 0
  2007                           
  2008 ;; *************** function _MODE_configure@hal_timer1$F3917 *****************
  2009 ;; Defined at:
  2010 ;;		line 119 in file "MCAL_Layer/TIMER1/hal_timer1.c"
  2011 ;; Parameters:    Size  Location     Type
  2012 ;;  TMR             1    3[COMRAM] PTR const struct .
  2013 ;;		 -> int1(7), 
  2014 ;; Auto vars:     Size  Location     Type
  2015 ;;		None
  2016 ;; Return value:  Size  Location     Type
  2017 ;;                  1    wreg      void 
  2018 ;; Registers used:
  2019 ;;		wreg, fsr2l, fsr2h, status,2, status,0
  2020 ;; Tracked objects:
  2021 ;;		On entry : 0/0
  2022 ;;		On exit  : 0/0
  2023 ;;		Unchanged: 0/0
  2024 ;; Data sizes:     COMRAM   BANK0   BANK1   BANK2   BANK3   BANK4   BANK5   BANK6   BANK7   BANK8   BANK9  BANK10  BANK1
      +1  BANK12  BANK13  BANK14  BANK15
  2025 ;;      Params:         1       0       0       0       0       0       0       0       0       0       0       0       
      +0       0       0       0       0
  2026 ;;      Locals:         0       0       0       0       0       0       0       0       0       0       0       0       
      +0       0       0       0       0
  2027 ;;      Temps:          0       0       0       0       0       0       0       0       0       0       0       0       
      +0       0       0       0       0
  2028 ;;      Totals:         1       0       0       0       0       0       0       0       0       0       0       0       
      +0       0       0       0       0
  2029 ;;Total ram usage:        1 bytes
  2030 ;; Hardware stack levels used: 1
  2031 ;; Hardware stack levels required when called: 3
  2032 ;; This function calls:
  2033 ;;		Nothing
  2034 ;; This function is called by:
  2035 ;;		_TMR1_Init
  2036 ;; This function uses a non-reentrant model
  2037 ;;
  2038                           
  2039                           	psect	text9
  2040   001EE6                     __ptext9:
  2041                           	callstack 0
  2042   001EE6                     _MODE_configure@hal_timer1$F3917:
  2043                           	callstack 25
  2044   001EE6                     
  2045                           ;MCAL_Layer/TIMER1/hal_timer1.c: 120:     if(1 == TMR->timer1_mode)
  2046   001EE6  5046               	movf	MODE_configure@hal_timer1$F3917@TMR^0,w,c
  2047   001EE8  6ED9               	movwf	fsr2l,c
  2048   001EEA  6ADA               	clrf	fsr2h,c
  2049   001EEC  0E06               	movlw	6
  2050   001EEE  26D9               	addwf	fsr2l,f,c
  2051   001EF0  A0DF               	btfss	indf2,0,c
  2052   001EF2  EF7D  F00F         	goto	u6891
  2053   001EF6  EF7F  F00F         	goto	u6890
  2054   001EFA                     u6891:
  2055   001EFA  EFA0  F00F         	goto	l7531
  2056   001EFE                     u6890:
  2057   001EFE                     
  2058                           ;MCAL_Layer/TIMER1/hal_timer1.c: 121:     {;MCAL_Layer/TIMER1/hal_timer1.c: 122:     (T1
      +                          CONbits.TMR1CS = 1 );
  2059   001EFE  82CD               	bsf	205,1,c	;volatile
  2060   001F00                     
  2061                           ;MCAL_Layer/TIMER1/hal_timer1.c: 123:      if(0 == TMR->counter_mode){
  2062   001F00  5046               	movf	MODE_configure@hal_timer1$F3917@TMR^0,w,c
  2063   001F02  6ED9               	movwf	fsr2l,c
  2064   001F04  6ADA               	clrf	fsr2h,c
  2065   001F06  0E06               	movlw	6
  2066   001F08  26D9               	addwf	fsr2l,f,c
  2067   001F0A  B6DF               	btfsc	indf2,3,c
  2068   001F0C  EF8A  F00F         	goto	u6901
  2069   001F10  EF8C  F00F         	goto	u6900
  2070   001F14                     u6901:
  2071   001F14  EF8F  F00F         	goto	l7527
  2072   001F18                     u6900:
  2073   001F18                     
  2074                           ;MCAL_Layer/TIMER1/hal_timer1.c: 124:     (T1CONbits.T1SYNC = 0) ;
  2075   001F18  94CD               	bcf	205,2,c	;volatile
  2076                           
  2077                           ;MCAL_Layer/TIMER1/hal_timer1.c: 125:     }
  2078   001F1A  EFAD  F00F         	goto	l1596
  2079   001F1E                     l7527:
  2080   001F1E  5046               	movf	MODE_configure@hal_timer1$F3917@TMR^0,w,c
  2081   001F20  6ED9               	movwf	fsr2l,c
  2082   001F22  6ADA               	clrf	fsr2h,c
  2083   001F24  0E06               	movlw	6
  2084   001F26  26D9               	addwf	fsr2l,f,c
  2085   001F28  A6DF               	btfss	indf2,3,c
  2086   001F2A  EF99  F00F         	goto	u6911
  2087   001F2E  EF9B  F00F         	goto	u6910
  2088   001F32                     u6911:
  2089   001F32  EF9E  F00F         	goto	l1590
  2090   001F36                     u6910:
  2091   001F36                     
  2092                           ;MCAL_Layer/TIMER1/hal_timer1.c: 127:      (T1CONbits.T1SYNC = 1) ;
  2093   001F36  84CD               	bsf	205,2,c	;volatile
  2094                           
  2095                           ;MCAL_Layer/TIMER1/hal_timer1.c: 128:     }else{
  2096   001F38  EFAD  F00F         	goto	l1596
  2097   001F3C                     l1590:
  2098                           
  2099                           ;MCAL_Layer/TIMER1/hal_timer1.c: 131:     }
  2100   001F3C  EFAD  F00F         	goto	l1596
  2101   001F40                     l7531:
  2102   001F40  5046               	movf	MODE_configure@hal_timer1$F3917@TMR^0,w,c
  2103   001F42  6ED9               	movwf	fsr2l,c
  2104   001F44  6ADA               	clrf	fsr2h,c
  2105   001F46  0E06               	movlw	6
  2106   001F48  26D9               	addwf	fsr2l,f,c
  2107   001F4A  B0DF               	btfsc	indf2,0,c
  2108   001F4C  EFAA  F00F         	goto	u6921
  2109   001F50  EFAC  F00F         	goto	u6920
  2110   001F54                     u6921:
  2111   001F54  EFAD  F00F         	goto	l1596
  2112   001F58                     u6920:
  2113   001F58                     
  2114                           ;MCAL_Layer/TIMER1/hal_timer1.c: 133:     {;MCAL_Layer/TIMER1/hal_timer1.c: 134:     (T1
      +                          CONbits.TMR1CS = 0 );
  2115   001F58  92CD               	bcf	205,1,c	;volatile
  2116   001F5A                     l1596:
  2117   001F5A  0012               	return		;funcret
  2118   001F5C                     __end_of_MODE_configure@hal_timer1$F3917:
  2119                           	callstack 0
  2120                           
  2121 ;; *************** function _convert_uint8_to_string *****************
  2122 ;; Defined at:
  2123 ;;		line 246 in file "ECU_Layer/CHR_LCD/ecu_chr_lcd.c"
  2124 ;; Parameters:    Size  Location     Type
  2125 ;;  num             1    wreg     unsigned char 
  2126 ;;  str             1   45[COMRAM] PTR unsigned char 
  2127 ;;		 -> hour_nums2(5), minute_nums2(5), second_nums2(5), hour_nums(5), 
  2128 ;;		 -> minute_nums(5), second_nums(5), 
  2129 ;; Auto vars:     Size  Location     Type
  2130 ;;  num             1    0[BANK0 ] unsigned char 
  2131 ;;  ret             1    0        unsigned char 
  2132 ;; Return value:  Size  Location     Type
  2133 ;;                  1    wreg      unsigned char 
  2134 ;; Registers used:
  2135 ;;		wreg, fsr1l, fsr1h, fsr2l, fsr2h, status,2, status,0, tblptrl, tblptrh, tblptru, cstack
  2136 ;; Tracked objects:
  2137 ;;		On entry : 0/0
  2138 ;;		On exit  : 0/0
  2139 ;;		Unchanged: 0/0
  2140 ;; Data sizes:     COMRAM   BANK0   BANK1   BANK2   BANK3   BANK4   BANK5   BANK6   BANK7   BANK8   BANK9  BANK10  BANK1
      +1  BANK12  BANK13  BANK14  BANK15
  2141 ;;      Params:         1       0       0       0       0       0       0       0       0       0       0       0       
      +0       0       0       0       0
  2142 ;;      Locals:         0       1       0       0       0       0       0       0       0       0       0       0       
      +0       0       0       0       0
  2143 ;;      Temps:          0       0       0       0       0       0       0       0       0       0       0       0       
      +0       0       0       0       0
  2144 ;;      Totals:         1       1       0       0       0       0       0       0       0       0       0       0       
      +0       0       0       0       0
  2145 ;;Total ram usage:        2 bytes
  2146 ;; Hardware stack levels used: 1
  2147 ;; Hardware stack levels required when called: 8
  2148 ;; This function calls:
  2149 ;;		_memset
  2150 ;;		_sprintf
  2151 ;; This function is called by:
  2152 ;;		_main
  2153 ;; This function uses a non-reentrant model
  2154 ;;
  2155                           
  2156                           	psect	text10
  2157   002142                     __ptext10:
  2158                           	callstack 0
  2159   002142                     _convert_uint8_to_string:
  2160                           	callstack 22
  2161                           
  2162                           ;incstack = 0
  2163                           ;convert_uint8_to_string@num stored from wreg
  2164   002142  0100               	movlb	0	; () banked
  2165   002144  6FFB               	movwf	convert_uint8_to_string@num& (0+255),b
  2166   002146                     
  2167                           ;ECU_Layer/CHR_LCD/ecu_chr_lcd.c: 248:     if((((void*)0)==str)){
  2168   002146  5070               	movf	convert_uint8_to_string@str^0,w,c
  2169   002148  A4D8               	btfss	status,2,c
  2170   00214A  EFA9  F010         	goto	u7181
  2171   00214E  EFAB  F010         	goto	u7180
  2172   002152                     u7181:
  2173   002152  EFAD  F010         	goto	l7815
  2174   002156                     u7180:
  2175   002156                     
  2176                           ;ECU_Layer/CHR_LCD/ecu_chr_lcd.c: 250:     }else {
  2177   002156  EFC2  F010         	goto	l160
  2178   00215A                     l7815:
  2179                           
  2180                           ;ECU_Layer/CHR_LCD/ecu_chr_lcd.c: 251:        memset(str , '\0', 4);
  2181   00215A  C070  F046         	movff	convert_uint8_to_string@str,memset@dest
  2182   00215E  0E00               	movlw	0
  2183   002160  6E48               	movwf	(memset@c+1)^0,c
  2184   002162  0E00               	movlw	0
  2185   002164  6E47               	movwf	memset@c^0,c
  2186   002166  0E00               	movlw	0
  2187   002168  6E4A               	movwf	(memset@n+1)^0,c
  2188   00216A  0E04               	movlw	4
  2189   00216C  6E49               	movwf	memset@n^0,c
  2190   00216E  ECAA  F011         	call	_memset	;wreg free
  2191   002172                     
  2192                           ;ECU_Layer/CHR_LCD/ecu_chr_lcd.c: 252:         sprintf(str , "%i" , num);
  2193   002172  C070  F05F         	movff	convert_uint8_to_string@str,sprintf@s
  2194   002176  0E19               	movlw	low STR_1
  2195   002178  6E60               	movwf	sprintf@fmt^0,c
  2196   00217A  C0FB  F061         	movff	convert_uint8_to_string@num,?_sprintf+2
  2197   00217E  6A62               	clrf	(?_sprintf+3)^0,c
  2198   002180  EC76  F011         	call	_sprintf	;wreg free
  2199   002184                     l160:
  2200   002184  0012               	return		;funcret
  2201   002186                     __end_of_convert_uint8_to_string:
  2202                           	callstack 0
  2203                           
  2204 ;; *************** function _sprintf *****************
  2205 ;; Defined at:
  2206 ;;		line 9 in file "C:\Program Files\Microchip\xc8\v2.45\pic\sources\c99\common\nf_sprintf.c"
  2207 ;; Parameters:    Size  Location     Type
  2208 ;;  s               1   28[COMRAM] PTR unsigned char 
  2209 ;;		 -> hour_nums2(5), minute_nums2(5), second_nums2(5), hour_nums(5), 
  2210 ;;		 -> minute_nums(5), second_nums(5), convert_uint16_to_string@temp(6), 
  2211 ;;  fmt             1   29[COMRAM] PTR const unsigned char 
  2212 ;;		 -> STR_3(3), STR_2(3), STR_1(3), 
  2213 ;; Auto vars:     Size  Location     Type
  2214 ;;  f              12   33[COMRAM] struct _IO_FILE
  2215 ;;  ret             2    0        int 
  2216 ;;  ap              1   32[COMRAM] PTR void [1]
  2217 ;;		 -> ?_sprintf(2), 
  2218 ;; Return value:  Size  Location     Type
  2219 ;;                  2   28[COMRAM] int 
  2220 ;; Registers used:
  2221 ;;		wreg, fsr1l, fsr1h, fsr2l, fsr2h, status,2, status,0, tblptrl, tblptrh, tblptru, cstack
  2222 ;; Tracked objects:
  2223 ;;		On entry : 0/0
  2224 ;;		On exit  : 0/0
  2225 ;;		Unchanged: 0/0
  2226 ;; Data sizes:     COMRAM   BANK0   BANK1   BANK2   BANK3   BANK4   BANK5   BANK6   BANK7   BANK8   BANK9  BANK10  BANK1
      +1  BANK12  BANK13  BANK14  BANK15
  2227 ;;      Params:         4       0       0       0       0       0       0       0       0       0       0       0       
      +0       0       0       0       0
  2228 ;;      Locals:        13       0       0       0       0       0       0       0       0       0       0       0       
      +0       0       0       0       0
  2229 ;;      Temps:          0       0       0       0       0       0       0       0       0       0       0       0       
      +0       0       0       0       0
  2230 ;;      Totals:        17       0       0       0       0       0       0       0       0       0       0       0       
      +0       0       0       0       0
  2231 ;;Total ram usage:       17 bytes
  2232 ;; Hardware stack levels used: 1
  2233 ;; Hardware stack levels required when called: 7
  2234 ;; This function calls:
  2235 ;;		_vfprintf
  2236 ;; This function is called by:
  2237 ;;		_convert_uint8_to_string
  2238 ;;		_convert_uint16_to_string
  2239 ;;		_convert_uint32_to_string
  2240 ;; This function uses a non-reentrant model
  2241 ;;
  2242                           
  2243                           	psect	text11
  2244   0022EC                     __ptext11:
  2245                           	callstack 0
  2246   0022EC                     _sprintf:
  2247                           	callstack 22
  2248   0022EC  0E61               	movlw	low (?_sprintf+2)
  2249   0022EE  6E63               	movwf	sprintf@ap^0,c
  2250   0022F0  C05F  F064         	movff	sprintf@s,sprintf@f
  2251   0022F4  0E00               	movlw	0
  2252   0022F6  6E68               	movwf	(sprintf@f+4)^0,c
  2253   0022F8  0E00               	movlw	0
  2254   0022FA  6E67               	movwf	(sprintf@f+3)^0,c
  2255   0022FC  0E00               	movlw	0
  2256   0022FE  6E6F               	movwf	(sprintf@f+11)^0,c
  2257   002300  0E00               	movlw	0
  2258   002302  6E6E               	movwf	(sprintf@f+10)^0,c
  2259   002304  0E64               	movlw	low sprintf@f
  2260   002306  6E5B               	movwf	vfprintf@fp^0,c
  2261   002308  C060  F05C         	movff	sprintf@fmt,vfprintf@fmt
  2262   00230C  0E63               	movlw	low sprintf@ap
  2263   00230E  6E5D               	movwf	vfprintf@ap^0,c
  2264   002310  ECC3  F010         	call	_vfprintf	;wreg free
  2265   002314  505F               	movf	sprintf@s^0,w,c
  2266   002316  2467               	addwf	(sprintf@f+3)^0,w,c
  2267   002318  6ED9               	movwf	fsr2l,c
  2268   00231A  6ADA               	clrf	fsr2h,c
  2269   00231C  6ADF               	clrf	indf2,c
  2270   00231E  0012               	return		;funcret
  2271   002320                     __end_of_sprintf:
  2272                           	callstack 0
  2273                           
  2274 ;; *************** function _vfprintf *****************
  2275 ;; Defined at:
  2276 ;;		line 1817 in file "C:\Program Files\Microchip\xc8\v2.45\pic\sources\c99\common\doprnt.c"
  2277 ;; Parameters:    Size  Location     Type
  2278 ;;  fp              1   24[COMRAM] PTR struct _IO_FILE
  2279 ;;		 -> sprintf@f(12), 
  2280 ;;  fmt             1   25[COMRAM] PTR const unsigned char 
  2281 ;;		 -> STR_3(3), STR_2(3), STR_1(3), 
  2282 ;;  ap              1   26[COMRAM] PTR PTR void 
  2283 ;;		 -> sprintf@ap(1), 
  2284 ;; Auto vars:     Size  Location     Type
  2285 ;;  cfmt            1   27[COMRAM] PTR unsigned char 
  2286 ;;		 -> STR_3(3), STR_2(3), STR_1(3), 
  2287 ;; Return value:  Size  Location     Type
  2288 ;;                  2   24[COMRAM] int 
  2289 ;; Registers used:
  2290 ;;		wreg, fsr1l, fsr1h, fsr2l, fsr2h, status,2, status,0, tblptrl, tblptrh, tblptru, cstack
  2291 ;; Tracked objects:
  2292 ;;		On entry : 0/0
  2293 ;;		On exit  : 0/0
  2294 ;;		Unchanged: 0/0
  2295 ;; Data sizes:     COMRAM   BANK0   BANK1   BANK2   BANK3   BANK4   BANK5   BANK6   BANK7   BANK8   BANK9  BANK10  BANK1
      +1  BANK12  BANK13  BANK14  BANK15
  2296 ;;      Params:         3       0       0       0       0       0       0       0       0       0       0       0       
      +0       0       0       0       0
  2297 ;;      Locals:         1       0       0       0       0       0       0       0       0       0       0       0       
      +0       0       0       0       0
  2298 ;;      Temps:          0       0       0       0       0       0       0       0       0       0       0       0       
      +0       0       0       0       0
  2299 ;;      Totals:         4       0       0       0       0       0       0       0       0       0       0       0       
      +0       0       0       0       0
  2300 ;;Total ram usage:        4 bytes
  2301 ;; Hardware stack levels used: 1
  2302 ;; Hardware stack levels required when called: 6
  2303 ;; This function calls:
  2304 ;;		_vfpfcnvrt
  2305 ;; This function is called by:
  2306 ;;		_sprintf
  2307 ;; This function uses a non-reentrant model
  2308 ;;
  2309                           
  2310                           	psect	text12
  2311   002186                     __ptext12:
  2312                           	callstack 0
  2313   002186                     _vfprintf:
  2314                           	callstack 22
  2315   002186                     
  2316                           ;C:\Program Files\Microchip\xc8\v2.45\pic\sources\c99\common\doprnt.c: 1817: int vfprint
      +                          f(FILE *fp, const char *fmt, va_list ap);C:\Program Files\Microchip\xc8\v2.45\pic\source
      +                          s\c99\common\doprnt.c: 1818: {;C:\Program Files\Microchip\xc8\v2.45\pic\sources\c99\comm
      +                          on\doprnt.c: 1820:     char *cfmt;;C:\Program Files\Microchip\xc8\v2.45\pic\sources\c99\
      +                          common\doprnt.c: 1822:     cfmt = (char *)fmt;
  2317   002186  C05C  F05E         	movff	vfprintf@fmt,vfprintf@cfmt
  2318                           
  2319                           ;C:\Program Files\Microchip\xc8\v2.45\pic\sources\c99\common\doprnt.c: 1826:     while (
      +                          *cfmt) {
  2320   00218A  EFCF  F010         	goto	l7555
  2321   00218E                     l7553:
  2322                           
  2323                           ;C:\Program Files\Microchip\xc8\v2.45\pic\sources\c99\common\doprnt.c: 1830:    vfpfcnvr
      +                          t(fp, &cfmt, ap);
  2324   00218E  C05B  F050         	movff	vfprintf@fp,vfpfcnvrt@fp
  2325   002192  0E5E               	movlw	low vfprintf@cfmt
  2326   002194  6E51               	movwf	vfpfcnvrt@fmt^0,c
  2327   002196  C05D  F052         	movff	vfprintf@ap,vfpfcnvrt@ap
  2328   00219A  EC11  F00B         	call	_vfpfcnvrt	;wreg free
  2329   00219E                     l7555:
  2330                           
  2331                           ;C:\Program Files\Microchip\xc8\v2.45\pic\sources\c99\common\doprnt.c: 1826:     while (
      +                          *cfmt) {
  2332   00219E  C05E  FFF6         	movff	vfprintf@cfmt,tblptrl
  2333   0021A2                     	if	1	;There is more than 1 active tblptr byte
  2334   0021A2  0E10               	movlw	high __smallconst
  2335   0021A4  6EF7               	movwf	tblptrh,c
  2336   0021A6                     	endif
  2337   0021A6                     	if	1	;Program memory is < 0x10000, tblptru is always zero
  2338   0021A6  6AF8               	clrf	tblptru,c
  2339   0021A8                     	endif
  2340   0021A8                     	if	0	;tblptru may be non-zero
  2341   0021A8                     	endif
  2342   0021A8  0008               	tblrd		*
  2343   0021AA  50F5               	movf	tablat,w,c
  2344   0021AC  0900               	iorlw	0
  2345   0021AE  A4D8               	btfss	status,2,c
  2346   0021B0  EFDC  F010         	goto	u6971
  2347   0021B4  EFDE  F010         	goto	u6970
  2348   0021B8                     u6971:
  2349   0021B8  EFC7  F010         	goto	l7553
  2350   0021BC                     u6970:
  2351   0021BC                     
  2352                           ;C:\Program Files\Microchip\xc8\v2.45\pic\sources\c99\common\doprnt.c: 1835:  return 0;
  2353   0021BC  0E00               	movlw	0
  2354   0021BE  6E5C               	movwf	(?_vfprintf+1)^0,c
  2355   0021C0  0E00               	movlw	0
  2356   0021C2  6E5B               	movwf	?_vfprintf^0,c
  2357   0021C4  0012               	return		;funcret
  2358   0021C6                     __end_of_vfprintf:
  2359                           	callstack 0
  2360                           
  2361 ;; *************** function _vfpfcnvrt *****************
  2362 ;; Defined at:
  2363 ;;		line 1177 in file "C:\Program Files\Microchip\xc8\v2.45\pic\sources\c99\common\doprnt.c"
  2364 ;; Parameters:    Size  Location     Type
  2365 ;;  fp              1   13[COMRAM] PTR struct _IO_FILE
  2366 ;;		 -> sprintf@f(12), 
  2367 ;;  fmt             1   14[COMRAM] PTR PTR unsigned char 
  2368 ;;		 -> vfprintf@cfmt(1), 
  2369 ;;  ap              1   15[COMRAM] PTR PTR void 
  2370 ;;		 -> sprintf@ap(1), 
  2371 ;; Auto vars:     Size  Location     Type
  2372 ;;  convarg         4   19[COMRAM] struct .
  2373 ;;  c               1   23[COMRAM] unsigned char 
  2374 ;;  cp              1   18[COMRAM] PTR unsigned char 
  2375 ;;		 -> STR_3(3), STR_2(3), STR_1(3), 
  2376 ;;  done            1   17[COMRAM] _Bool 
  2377 ;; Return value:  Size  Location     Type
  2378 ;;                  1    wreg      void 
  2379 ;; Registers used:
  2380 ;;		wreg, fsr1l, fsr1h, fsr2l, fsr2h, status,2, status,0, tblptrl, tblptrh, tblptru, cstack
  2381 ;; Tracked objects:
  2382 ;;		On entry : 0/0
  2383 ;;		On exit  : 0/0
  2384 ;;		Unchanged: 0/0
  2385 ;; Data sizes:     COMRAM   BANK0   BANK1   BANK2   BANK3   BANK4   BANK5   BANK6   BANK7   BANK8   BANK9  BANK10  BANK1
      +1  BANK12  BANK13  BANK14  BANK15
  2386 ;;      Params:         3       0       0       0       0       0       0       0       0       0       0       0       
      +0       0       0       0       0
  2387 ;;      Locals:         7       0       0       0       0       0       0       0       0       0       0       0       
      +0       0       0       0       0
  2388 ;;      Temps:          1       0       0       0       0       0       0       0       0       0       0       0       
      +0       0       0       0       0
  2389 ;;      Totals:        11       0       0       0       0       0       0       0       0       0       0       0       
      +0       0       0       0       0
  2390 ;;Total ram usage:       11 bytes
  2391 ;; Hardware stack levels used: 1
  2392 ;; Hardware stack levels required when called: 5
  2393 ;; This function calls:
  2394 ;;		___awdiv
  2395 ;;		___awmod
  2396 ;;		_abs
  2397 ;;		_fputc
  2398 ;; This function is called by:
  2399 ;;		_vfprintf
  2400 ;; This function uses a non-reentrant model
  2401 ;;
  2402                           
  2403                           	psect	text13
  2404   001622                     __ptext13:
  2405                           	callstack 0
  2406   001622                     _vfpfcnvrt:
  2407                           	callstack 22
  2408   001622                     
  2409                           ;C:\Program Files\Microchip\xc8\v2.45\pic\sources\c99\common\doprnt.c: 1177: vfpfcnvrt(F
      +                          ILE *fp, char *fmt[], va_list ap);C:\Program Files\Microchip\xc8\v2.45\pic\sources\c99\c
      +                          ommon\doprnt.c: 1178: {;C:\Program Files\Microchip\xc8\v2.45\pic\sources\c99\common\dopr
      +                          nt.c: 1179:     char c, *cp;;C:\Program Files\Microchip\xc8\v2.45\pic\sources\c99\common
      +                          \doprnt.c: 1180:     _Bool done;;C:\Program Files\Microchip\xc8\v2.45\pic\sources\c99\co
      +                          mmon\doprnt.c: 1188:  } convarg;;C:\Program Files\Microchip\xc8\v2.45\pic\sources\c99\co
      +                          mmon\doprnt.c: 1201:     if ((*fmt)[0] == '%') {
  2410   001622  5051               	movf	vfpfcnvrt@fmt^0,w,c
  2411   001624  6ED9               	movwf	fsr2l,c
  2412   001626  6ADA               	clrf	fsr2h,c
  2413   001628  CFDF FFF6          	movff	indf2,tblptrl
  2414   00162C                     	if	1	;There is more than 1 active tblptr byte
  2415   00162C  0E10               	movlw	high __smallconst
  2416   00162E  6EF7               	movwf	tblptrh,c
  2417   001630                     	endif
  2418   001630                     	if	1	;Program memory is < 0x10000, tblptru is always zero
  2419   001630  6AF8               	clrf	tblptru,c
  2420   001632                     	endif
  2421   001632                     	if	0	;tblptru may be non-zero
  2422   001632                     	endif
  2423   001632  0008               	tblrd		*
  2424   001634  50F5               	movf	tablat,w,c
  2425   001636  0A25               	xorlw	37
  2426   001638  A4D8               	btfss	status,2,c
  2427   00163A  EF21  F00B         	goto	u6761
  2428   00163E  EF23  F00B         	goto	u6760
  2429   001642                     u6761:
  2430   001642  EFDF  F00B         	goto	l7491
  2431   001646                     u6760:
  2432   001646                     
  2433                           ;C:\Program Files\Microchip\xc8\v2.45\pic\sources\c99\common\doprnt.c: 1202:         ++*
      +                          fmt;
  2434   001646  5051               	movf	vfpfcnvrt@fmt^0,w,c
  2435   001648  6ED9               	movwf	fsr2l,c
  2436   00164A  6ADA               	clrf	fsr2h,c
  2437   00164C  2ADF               	incf	indf2,f,c
  2438   00164E                     
  2439                           ;C:\Program Files\Microchip\xc8\v2.45\pic\sources\c99\common\doprnt.c: 1204:         fla
      +                          gs = width = 0;
  2440   00164E  0E00               	movlw	0
  2441   001650  0100               	movlb	0	; () banked
  2442   001652  6FA7               	movwf	(_width+1)& (0+255),b
  2443   001654  0E00               	movlw	0
  2444   001656  6FA6               	movwf	_width& (0+255),b
  2445   001658  C0A6  F035         	movff	_width,_flags
  2446   00165C                     
  2447                           ; BSR set to: 0
  2448                           ;C:\Program Files\Microchip\xc8\v2.45\pic\sources\c99\common\doprnt.c: 1205:         pre
      +                          c = -1;
  2449   00165C  69A8               	setf	_prec& (0+255),b
  2450   00165E  69A9               	setf	(_prec+1)& (0+255),b
  2451   001660                     
  2452                           ; BSR set to: 0
  2453                           ;C:\Program Files\Microchip\xc8\v2.45\pic\sources\c99\common\doprnt.c: 1291:   cp = *fmt
      +                          ;
  2454   001660  5051               	movf	vfpfcnvrt@fmt^0,w,c
  2455   001662  6ED9               	movwf	fsr2l,c
  2456   001664  6ADA               	clrf	fsr2h,c
  2457   001666  50DF               	movf	indf2,w,c
  2458   001668  6E55               	movwf	vfpfcnvrt@cp^0,c
  2459   00166A                     
  2460                           ; BSR set to: 0
  2461                           ;C:\Program Files\Microchip\xc8\v2.45\pic\sources\c99\common\doprnt.c: 1361:   if (*cp =
      +                          = 'd' || *cp == 'i') {
  2462   00166A  C055  FFF6         	movff	vfpfcnvrt@cp,tblptrl
  2463   00166E                     	if	1	;There is more than 1 active tblptr byte
  2464   00166E  0E10               	movlw	high __smallconst
  2465   001670  6EF7               	movwf	tblptrh,c
  2466   001672                     	endif
  2467   001672                     	if	1	;Program memory is < 0x10000, tblptru is always zero
  2468   001672  6AF8               	clrf	tblptru,c
  2469   001674                     	endif
  2470   001674                     	if	0	;tblptru may be non-zero
  2471   001674                     	endif
  2472   001674  0008               	tblrd		*
  2473   001676  50F5               	movf	tablat,w,c
  2474   001678  0A64               	xorlw	100
  2475   00167A  B4D8               	btfsc	status,2,c
  2476   00167C  EF42  F00B         	goto	u6771
  2477   001680  EF44  F00B         	goto	u6770
  2478   001684                     u6771:
  2479   001684  EF53  F00B         	goto	l7461
  2480   001688                     u6770:
  2481   001688                     
  2482                           ; BSR set to: 0
  2483   001688  C055  FFF6         	movff	vfpfcnvrt@cp,tblptrl
  2484   00168C                     	if	1	;There is more than 1 active tblptr byte
  2485   00168C  0E10               	movlw	high __smallconst
  2486   00168E  6EF7               	movwf	tblptrh,c
  2487   001690                     	endif
  2488   001690                     	if	1	;Program memory is < 0x10000, tblptru is always zero
  2489   001690  6AF8               	clrf	tblptru,c
  2490   001692                     	endif
  2491   001692                     	if	0	;tblptru may be non-zero
  2492   001692                     	endif
  2493   001692  0008               	tblrd		*
  2494   001694  50F5               	movf	tablat,w,c
  2495   001696  0A69               	xorlw	105
  2496   001698  A4D8               	btfss	status,2,c
  2497   00169A  EF51  F00B         	goto	u6781
  2498   00169E  EF53  F00B         	goto	u6780
  2499   0016A2                     u6781:
  2500   0016A2  EFD9  F00B         	goto	l7487
  2501   0016A6                     u6780:
  2502   0016A6                     l7461:
  2503                           
  2504                           ; BSR set to: 0
  2505                           ;C:\Program Files\Microchip\xc8\v2.45\pic\sources\c99\common\doprnt.c: 1404:    convarg.
      +                          sint = (vfpf_sint_t)(int)(*(int *)__va_arg(*(int **)ap, (int)0));
  2506   0016A6  5052               	movf	vfpfcnvrt@ap^0,w,c
  2507   0016A8  6ED9               	movwf	fsr2l,c
  2508   0016AA  6ADA               	clrf	fsr2h,c
  2509   0016AC  0E02               	movlw	2
  2510   0016AE  26DF               	addwf	indf2,f,c
  2511   0016B0  5CDF               	subwf	indf2,w,c
  2512   0016B2  6ED9               	movwf	fsr2l,c
  2513   0016B4  6ADA               	clrf	fsr2h,c
  2514   0016B6  CFDE F056          	movff	postinc2,vfpfcnvrt@convarg
  2515   0016BA  CFDE F057          	movff	postinc2,vfpfcnvrt@convarg+1
  2516   0016BE                     
  2517                           ; BSR set to: 0
  2518                           ;C:\Program Files\Microchip\xc8\v2.45\pic\sources\c99\common\doprnt.c: 1406:    *fmt = c
      +                          p+1;
  2519   0016BE  5051               	movf	vfpfcnvrt@fmt^0,w,c
  2520   0016C0  6ED9               	movwf	fsr2l,c
  2521   0016C2  6ADA               	clrf	fsr2h,c
  2522   0016C4  2855               	incf	vfpfcnvrt@cp^0,w,c
  2523   0016C6  6EDF               	movwf	indf2,c
  2524   0016C8                     
  2525                           ; BSR set to: 0
  2526                           ;C:\Program Files\Microchip\xc8\v2.45\pic\sources\c99\common\doprnt.c: 1408:    c = size
      +                          of(dbuf);
  2527   0016C8  0E20               	movlw	32
  2528   0016CA  6E5A               	movwf	vfpfcnvrt@c^0,c
  2529                           
  2530                           ;C:\Program Files\Microchip\xc8\v2.45\pic\sources\c99\common\doprnt.c: 1409:    done = c
      +                          onvarg.sint < 0;
  2531   0016CC  BE57               	btfsc	(vfpfcnvrt@convarg+1)^0,7,c
  2532   0016CE  EF6B  F00B         	goto	u6791
  2533   0016D2  EF6E  F00B         	goto	u6790
  2534   0016D6                     u6791:
  2535   0016D6  0E01               	movlw	1
  2536   0016D8  EF6F  F00B         	goto	u6800
  2537   0016DC                     u6790:
  2538   0016DC  0E00               	movlw	0
  2539   0016DE                     u6800:
  2540   0016DE  6E54               	movwf	vfpfcnvrt@done^0,c
  2541   0016E0                     l7467:
  2542                           
  2543                           ;C:\Program Files\Microchip\xc8\v2.45\pic\sources\c99\common\doprnt.c: 1411:     dbuf[--
      +                          c] = abs(convarg.sint % 10) + '0';
  2544   0016E0  065A               	decf	vfpfcnvrt@c^0,f,c
  2545   0016E2  505A               	movf	vfpfcnvrt@c^0,w,c
  2546   0016E4  0F80               	addlw	low _dbuf
  2547   0016E6  6ED9               	movwf	fsr2l,c
  2548   0016E8  6ADA               	clrf	fsr2h,c
  2549   0016EA  C056  F046         	movff	vfpfcnvrt@convarg,___awmod@dividend
  2550   0016EE  C057  F047         	movff	vfpfcnvrt@convarg+1,___awmod@dividend+1
  2551   0016F2  0E00               	movlw	0
  2552   0016F4  6E49               	movwf	(___awmod@divisor+1)^0,c
  2553   0016F6  0E0A               	movlw	10
  2554   0016F8  6E48               	movwf	___awmod@divisor^0,c
  2555   0016FA  ECDE  F00D         	call	___awmod	;wreg free
  2556   0016FE  C046  F04C         	movff	?___awmod,abs@a
  2557   001702  C047  F04D         	movff	?___awmod+1,abs@a+1
  2558   001706  EC90  F011         	call	_abs	;wreg free
  2559   00170A  504C               	movf	?_abs^0,w,c
  2560   00170C  0F30               	addlw	48
  2561   00170E  6EDF               	movwf	indf2,c
  2562   001710                     
  2563                           ;C:\Program Files\Microchip\xc8\v2.45\pic\sources\c99\common\doprnt.c: 1412:     convarg
      +                          .sint /= 10;
  2564   001710  C056  F046         	movff	vfpfcnvrt@convarg,___awdiv@dividend
  2565   001714  C057  F047         	movff	vfpfcnvrt@convarg+1,___awdiv@dividend+1
  2566   001718  0E00               	movlw	0
  2567   00171A  6E49               	movwf	(___awdiv@divisor+1)^0,c
  2568   00171C  0E0A               	movlw	10
  2569   00171E  6E48               	movwf	___awdiv@divisor^0,c
  2570   001720  EC7C  F00D         	call	___awdiv	;wreg free
  2571   001724  C046  F056         	movff	?___awdiv,vfpfcnvrt@convarg
  2572   001728  C047  F057         	movff	?___awdiv+1,vfpfcnvrt@convarg+1
  2573   00172C                     
  2574                           ;C:\Program Files\Microchip\xc8\v2.45\pic\sources\c99\common\doprnt.c: 1416:    } while 
      +                          (convarg.sint != 0 && c != 0);
  2575   00172C  5056               	movf	vfpfcnvrt@convarg^0,w,c
  2576   00172E  1057               	iorwf	(vfpfcnvrt@convarg+1)^0,w,c
  2577   001730  B4D8               	btfsc	status,2,c
  2578   001732  EF9D  F00B         	goto	u6811
  2579   001736  EF9F  F00B         	goto	u6810
  2580   00173A                     u6811:
  2581   00173A  EFA7  F00B         	goto	l7475
  2582   00173E                     u6810:
  2583   00173E  505A               	movf	vfpfcnvrt@c^0,w,c
  2584   001740  A4D8               	btfss	status,2,c
  2585   001742  EFA5  F00B         	goto	u6821
  2586   001746  EFA7  F00B         	goto	u6820
  2587   00174A                     u6821:
  2588   00174A  EF70  F00B         	goto	l7467
  2589   00174E                     u6820:
  2590   00174E                     l7475:
  2591                           
  2592                           ;C:\Program Files\Microchip\xc8\v2.45\pic\sources\c99\common\doprnt.c: 1417:    if (c !=
      +                           0 && done) {
  2593   00174E  505A               	movf	vfpfcnvrt@c^0,w,c
  2594   001750  B4D8               	btfsc	status,2,c
  2595   001752  EFAD  F00B         	goto	u6831
  2596   001756  EFAF  F00B         	goto	u6830
  2597   00175A                     u6831:
  2598   00175A  EFCE  F00B         	goto	l7485
  2599   00175E                     u6830:
  2600   00175E  5054               	movf	vfpfcnvrt@done^0,w,c
  2601   001760  B4D8               	btfsc	status,2,c
  2602   001762  EFB5  F00B         	goto	u6841
  2603   001766  EFB7  F00B         	goto	u6840
  2604   00176A                     u6841:
  2605   00176A  EFCE  F00B         	goto	l7485
  2606   00176E                     u6840:
  2607   00176E                     
  2608                           ;C:\Program Files\Microchip\xc8\v2.45\pic\sources\c99\common\doprnt.c: 1418:     dbuf[--
      +                          c] = '-';
  2609   00176E  065A               	decf	vfpfcnvrt@c^0,f,c
  2610   001770  505A               	movf	vfpfcnvrt@c^0,w,c
  2611   001772  0F80               	addlw	low _dbuf
  2612   001774  6ED9               	movwf	fsr2l,c
  2613   001776  6ADA               	clrf	fsr2h,c
  2614   001778  0E2D               	movlw	45
  2615   00177A  6EDF               	movwf	indf2,c
  2616   00177C  EFCE  F00B         	goto	l7485
  2617   001780                     l7481:
  2618                           
  2619                           ;C:\Program Files\Microchip\xc8\v2.45\pic\sources\c99\common\doprnt.c: 1424:     fputc(d
      +                          buf[c++], fp);
  2620   001780  505A               	movf	vfpfcnvrt@c^0,w,c
  2621   001782  0F80               	addlw	low _dbuf
  2622   001784  6ED9               	movwf	fsr2l,c
  2623   001786  6ADA               	clrf	fsr2h,c
  2624   001788  50DF               	movf	indf2,w,c
  2625   00178A  6E53               	movwf	??_vfpfcnvrt^0,c
  2626   00178C  5053               	movf	??_vfpfcnvrt^0,w,c
  2627   00178E  6E46               	movwf	fputc@c^0,c
  2628   001790  6A47               	clrf	(fputc@c+1)^0,c
  2629   001792  C050  F048         	movff	vfpfcnvrt@fp,fputc@fp
  2630   001796  EC36  F00E         	call	_fputc	;wreg free
  2631   00179A  2A5A               	incf	vfpfcnvrt@c^0,f,c
  2632   00179C                     l7485:
  2633                           
  2634                           ;C:\Program Files\Microchip\xc8\v2.45\pic\sources\c99\common\doprnt.c: 1423:    while (c
      +                           != sizeof(dbuf)) {
  2635   00179C  0E20               	movlw	32
  2636   00179E  185A               	xorwf	vfpfcnvrt@c^0,w,c
  2637   0017A0  A4D8               	btfss	status,2,c
  2638   0017A2  EFD5  F00B         	goto	u6851
  2639   0017A6  EFD7  F00B         	goto	u6850
  2640   0017AA                     u6851:
  2641   0017AA  EFC0  F00B         	goto	l7481
  2642   0017AE                     u6850:
  2643   0017AE  EFF1  F00B         	goto	l2501
  2644   0017B2                     l7487:
  2645                           
  2646                           ;C:\Program Files\Microchip\xc8\v2.45\pic\sources\c99\common\doprnt.c: 1806:         ++*
      +                          fmt;
  2647   0017B2  5051               	movf	vfpfcnvrt@fmt^0,w,c
  2648   0017B4  6ED9               	movwf	fsr2l,c
  2649   0017B6  6ADA               	clrf	fsr2h,c
  2650   0017B8  2ADF               	incf	indf2,f,c
  2651   0017BA  EFF1  F00B         	goto	l2501
  2652   0017BE                     l7491:
  2653                           
  2654                           ;C:\Program Files\Microchip\xc8\v2.45\pic\sources\c99\common\doprnt.c: 1811:     fputc((
      +                          int)(*fmt)[0], fp);
  2655   0017BE  5051               	movf	vfpfcnvrt@fmt^0,w,c
  2656   0017C0  6ED9               	movwf	fsr2l,c
  2657   0017C2  6ADA               	clrf	fsr2h,c
  2658   0017C4  CFDF FFF6          	movff	indf2,tblptrl
  2659   0017C8                     	if	1	;There is more than 1 active tblptr byte
  2660   0017C8  0E10               	movlw	high __smallconst
  2661   0017CA  6EF7               	movwf	tblptrh,c
  2662   0017CC                     	endif
  2663   0017CC                     	if	1	;Program memory is < 0x10000, tblptru is always zero
  2664   0017CC  6AF8               	clrf	tblptru,c
  2665   0017CE                     	endif
  2666   0017CE                     	if	0	;tblptru may be non-zero
  2667   0017CE                     	endif
  2668   0017CE  0008               	tblrd		*
  2669   0017D0  50F5               	movf	tablat,w,c
  2670   0017D2  6E46               	movwf	fputc@c^0,c
  2671   0017D4  6A47               	clrf	(fputc@c+1)^0,c
  2672   0017D6  C050  F048         	movff	vfpfcnvrt@fp,fputc@fp
  2673   0017DA  EC36  F00E         	call	_fputc	;wreg free
  2674   0017DE  EFD9  F00B         	goto	l7487
  2675   0017E2                     l2501:
  2676   0017E2  0012               	return		;funcret
  2677   0017E4                     __end_of_vfpfcnvrt:
  2678                           	callstack 0
  2679                           
  2680 ;; *************** function _fputc *****************
  2681 ;; Defined at:
  2682 ;;		line 8 in file "C:\Program Files\Microchip\xc8\v2.45\pic\sources\c99\common\nf_fputc.c"
  2683 ;; Parameters:    Size  Location     Type
  2684 ;;  c               2    3[COMRAM] int 
  2685 ;;  fp              1    5[COMRAM] PTR struct _IO_FILE
  2686 ;;		 -> sprintf@f(12), 
  2687 ;; Auto vars:     Size  Location     Type
  2688 ;;		None
  2689 ;; Return value:  Size  Location     Type
  2690 ;;                  2    3[COMRAM] int 
  2691 ;; Registers used:
  2692 ;;		wreg, fsr1l, fsr1h, fsr2l, fsr2h, status,2, status,0, cstack
  2693 ;; Tracked objects:
  2694 ;;		On entry : 0/0
  2695 ;;		On exit  : 0/0
  2696 ;;		Unchanged: 0/0
  2697 ;; Data sizes:     COMRAM   BANK0   BANK1   BANK2   BANK3   BANK4   BANK5   BANK6   BANK7   BANK8   BANK9  BANK10  BANK1
      +1  BANK12  BANK13  BANK14  BANK15
  2698 ;;      Params:         3       0       0       0       0       0       0       0       0       0       0       0       
      +0       0       0       0       0
  2699 ;;      Locals:         0       0       0       0       0       0       0       0       0       0       0       0       
      +0       0       0       0       0
  2700 ;;      Temps:          5       0       0       0       0       0       0       0       0       0       0       0       
      +0       0       0       0       0
  2701 ;;      Totals:         8       0       0       0       0       0       0       0       0       0       0       0       
      +0       0       0       0       0
  2702 ;;Total ram usage:        8 bytes
  2703 ;; Hardware stack levels used: 1
  2704 ;; Hardware stack levels required when called: 4
  2705 ;; This function calls:
  2706 ;;		_putch
  2707 ;; This function is called by:
  2708 ;;		_vfpfcnvrt
  2709 ;; This function uses a non-reentrant model
  2710 ;;
  2711                           
  2712                           	psect	text14
  2713   001C6C                     __ptext14:
  2714                           	callstack 0
  2715   001C6C                     _fputc:
  2716                           	callstack 22
  2717   001C6C  5048               	movf	fputc@fp^0,w,c
  2718   001C6E  B4D8               	btfsc	status,2,c
  2719   001C70  EF3C  F00E         	goto	u6631
  2720   001C74  EF3E  F00E         	goto	u6630
  2721   001C78                     u6631:
  2722   001C78  EF46  F00E         	goto	l7383
  2723   001C7C                     u6630:
  2724   001C7C  5048               	movf	fputc@fp^0,w,c
  2725   001C7E  A4D8               	btfss	status,2,c
  2726   001C80  EF44  F00E         	goto	u6641
  2727   001C84  EF46  F00E         	goto	u6640
  2728   001C88                     u6641:
  2729   001C88  EF4B  F00E         	goto	l7385
  2730   001C8C                     u6640:
  2731   001C8C                     l7383:
  2732   001C8C  5046               	movf	fputc@c^0,w,c
  2733   001C8E  EC4C  F012         	call	_putch
  2734   001C92  EF8A  F00E         	goto	l2526
  2735   001C96                     l7385:
  2736   001C96  5048               	movf	fputc@fp^0,w,c
  2737   001C98  6ED9               	movwf	fsr2l,c
  2738   001C9A  6ADA               	clrf	fsr2h,c
  2739   001C9C  0E0A               	movlw	10
  2740   001C9E  26D9               	addwf	fsr2l,f,c
  2741   001CA0  50DE               	movf	postinc2,w,c
  2742   001CA2  10DE               	iorwf	postinc2,w,c
  2743   001CA4  B4D8               	btfsc	status,2,c
  2744   001CA6  EF57  F00E         	goto	u6651
  2745   001CAA  EF59  F00E         	goto	u6650
  2746   001CAE                     u6651:
  2747   001CAE  EF72  F00E         	goto	l7389
  2748   001CB2                     u6650:
  2749   001CB2  5048               	movf	fputc@fp^0,w,c
  2750   001CB4  6ED9               	movwf	fsr2l,c
  2751   001CB6  6ADA               	clrf	fsr2h,c
  2752   001CB8  0E0A               	movlw	10
  2753   001CBA  26D9               	addwf	fsr2l,f,c
  2754   001CBC  5048               	movf	fputc@fp^0,w,c
  2755   001CBE  6EE1               	movwf	fsr1l,c
  2756   001CC0  6AE2               	clrf	fsr1h,c
  2757   001CC2  0E03               	movlw	3
  2758   001CC4  26E1               	addwf	fsr1l,f,c
  2759   001CC6  50DE               	movf	postinc2,w,c
  2760   001CC8  5CE6               	subwf	postinc1,w,c
  2761   001CCA  50E6               	movf	postinc1,w,c
  2762   001CCC  0A80               	xorlw	128
  2763   001CCE  6E4D               	movwf	(??_fputc+4)^0,c
  2764   001CD0  50DE               	movf	postinc2,w,c
  2765   001CD2  0A80               	xorlw	128
  2766   001CD4  584D               	subwfb	(??_fputc+4)^0,w,c
  2767   001CD6  B0D8               	btfsc	status,0,c
  2768   001CD8  EF70  F00E         	goto	u6661
  2769   001CDC  EF72  F00E         	goto	u6660
  2770   001CE0                     u6661:
  2771   001CE0  EF8A  F00E         	goto	l2526
  2772   001CE4                     u6660:
  2773   001CE4                     l7389:
  2774   001CE4  5048               	movf	fputc@fp^0,w,c
  2775   001CE6  6ED9               	movwf	fsr2l,c
  2776   001CE8  6ADA               	clrf	fsr2h,c
  2777   001CEA  0E03               	movlw	3
  2778   001CEC  26D9               	addwf	fsr2l,f,c
  2779   001CEE  50DF               	movf	indf2,w,c
  2780   001CF0  6E49               	movwf	??_fputc^0,c
  2781   001CF2  5048               	movf	fputc@fp^0,w,c
  2782   001CF4  6ED9               	movwf	fsr2l,c
  2783   001CF6  6ADA               	clrf	fsr2h,c
  2784   001CF8  50DF               	movf	indf2,w,c
  2785   001CFA  2449               	addwf	??_fputc^0,w,c
  2786   001CFC  6ED9               	movwf	fsr2l,c
  2787   001CFE  6ADA               	clrf	fsr2h,c
  2788   001D00  C046  FFDF         	movff	fputc@c,indf2
  2789   001D04  5048               	movf	fputc@fp^0,w,c
  2790   001D06  6ED9               	movwf	fsr2l,c
  2791   001D08  6ADA               	clrf	fsr2h,c
  2792   001D0A  0E03               	movlw	3
  2793   001D0C  26D9               	addwf	fsr2l,f,c
  2794   001D0E  2ADE               	incf	postinc2,f,c
  2795   001D10  0E00               	movlw	0
  2796   001D12  22DD               	addwfc	postdec2,f,c
  2797   001D14                     l2526:
  2798   001D14  0012               	return		;funcret
  2799   001D16                     __end_of_fputc:
  2800                           	callstack 0
  2801                           
  2802 ;; *************** function _putch *****************
  2803 ;; Defined at:
  2804 ;;		line 7 in file "C:\Program Files\Microchip\xc8\v2.45\pic\sources\c99\common\putch.c"
  2805 ;; Parameters:    Size  Location     Type
  2806 ;;  c               1    wreg     unsigned char 
  2807 ;; Auto vars:     Size  Location     Type
  2808 ;;  c               1    0[COMRAM] unsigned char 
  2809 ;; Return value:  Size  Location     Type
  2810 ;;                  1    wreg      void 
  2811 ;; Registers used:
  2812 ;;		wreg
  2813 ;; Tracked objects:
  2814 ;;		On entry : 0/0
  2815 ;;		On exit  : 0/0
  2816 ;;		Unchanged: 0/0
  2817 ;; Data sizes:     COMRAM   BANK0   BANK1   BANK2   BANK3   BANK4   BANK5   BANK6   BANK7   BANK8   BANK9  BANK10  BANK1
      +1  BANK12  BANK13  BANK14  BANK15
  2818 ;;      Params:         0       0       0       0       0       0       0       0       0       0       0       0       
      +0       0       0       0       0
  2819 ;;      Locals:         0       0       0       0       0       0       0       0       0       0       0       0       
      +0       0       0       0       0
  2820 ;;      Temps:          0       0       0       0       0       0       0       0       0       0       0       0       
      +0       0       0       0       0
  2821 ;;      Totals:         0       0       0       0       0       0       0       0       0       0       0       0       
      +0       0       0       0       0
  2822 ;;Total ram usage:        0 bytes
  2823 ;; Hardware stack levels used: 1
  2824 ;; Hardware stack levels required when called: 3
  2825 ;; This function calls:
  2826 ;;		Nothing
  2827 ;; This function is called by:
  2828 ;;		_fputc
  2829 ;; This function uses a non-reentrant model
  2830 ;;
  2831                           
  2832                           	psect	text15
  2833   002498                     __ptext15:
  2834                           	callstack 0
  2835   002498                     _putch:
  2836                           	callstack 22
  2837   002498  0012               	return		;funcret
  2838   00249A                     __end_of_putch:
  2839                           	callstack 0
  2840                           
  2841 ;; *************** function _abs *****************
  2842 ;; Defined at:
  2843 ;;		line 1 in file "C:\Program Files\Microchip\xc8\v2.45\pic\sources\c99\common\abs.c"
  2844 ;; Parameters:    Size  Location     Type
  2845 ;;  a               2    9[COMRAM] int 
  2846 ;; Auto vars:     Size  Location     Type
  2847 ;;		None
  2848 ;; Return value:  Size  Location     Type
  2849 ;;                  2    9[COMRAM] int 
  2850 ;; Registers used:
  2851 ;;		wreg, status,2, status,0
  2852 ;; Tracked objects:
  2853 ;;		On entry : 0/0
  2854 ;;		On exit  : 0/0
  2855 ;;		Unchanged: 0/0
  2856 ;; Data sizes:     COMRAM   BANK0   BANK1   BANK2   BANK3   BANK4   BANK5   BANK6   BANK7   BANK8   BANK9  BANK10  BANK1
      +1  BANK12  BANK13  BANK14  BANK15
  2857 ;;      Params:         2       0       0       0       0       0       0       0       0       0       0       0       
      +0       0       0       0       0
  2858 ;;      Locals:         0       0       0       0       0       0       0       0       0       0       0       0       
      +0       0       0       0       0
  2859 ;;      Temps:          2       0       0       0       0       0       0       0       0       0       0       0       
      +0       0       0       0       0
  2860 ;;      Totals:         4       0       0       0       0       0       0       0       0       0       0       0       
      +0       0       0       0       0
  2861 ;;Total ram usage:        4 bytes
  2862 ;; Hardware stack levels used: 1
  2863 ;; Hardware stack levels required when called: 3
  2864 ;; This function calls:
  2865 ;;		Nothing
  2866 ;; This function is called by:
  2867 ;;		_vfpfcnvrt
  2868 ;; This function uses a non-reentrant model
  2869 ;;
  2870                           
  2871                           	psect	text16
  2872   002320                     __ptext16:
  2873                           	callstack 0
  2874   002320                     _abs:
  2875                           	callstack 23
  2876   002320  BE4D               	btfsc	(abs@a+1)^0,7,c
  2877   002322  EF95  F011         	goto	u6671
  2878   002326  EF97  F011         	goto	u6670
  2879   00232A                     u6671:
  2880   00232A  EF9D  F011         	goto	l2511
  2881   00232E                     u6670:
  2882   00232E  C04C  F04C         	movff	abs@a,?_abs
  2883   002332  C04D  F04D         	movff	abs@a+1,?_abs+1
  2884   002336  EFA9  F011         	goto	l2514
  2885   00233A                     l2511:
  2886   00233A  C04C  F04E         	movff	abs@a,??_abs
  2887   00233E  C04D  F04F         	movff	abs@a+1,??_abs+1
  2888   002342  1E4E               	comf	??_abs^0,f,c
  2889   002344  1E4F               	comf	(??_abs+1)^0,f,c
  2890   002346  4A4E               	infsnz	??_abs^0,f,c
  2891   002348  2A4F               	incf	(??_abs+1)^0,f,c
  2892   00234A  C04E  F04C         	movff	??_abs,?_abs
  2893   00234E  C04F  F04D         	movff	??_abs+1,?_abs+1
  2894   002352                     l2514:
  2895   002352  0012               	return		;funcret
  2896   002354                     __end_of_abs:
  2897                           	callstack 0
  2898                           
  2899 ;; *************** function ___awmod *****************
  2900 ;; Defined at:
  2901 ;;		line 7 in file "C:\Program Files\Microchip\xc8\v2.45\pic\sources\c99\common\awmod.c"
  2902 ;; Parameters:    Size  Location     Type
  2903 ;;  dividend        2    3[COMRAM] int 
  2904 ;;  divisor         2    5[COMRAM] int 
  2905 ;; Auto vars:     Size  Location     Type
  2906 ;;  sign            1    8[COMRAM] unsigned char 
  2907 ;;  counter         1    7[COMRAM] unsigned char 
  2908 ;; Return value:  Size  Location     Type
  2909 ;;                  2    3[COMRAM] int 
  2910 ;; Registers used:
  2911 ;;		wreg, status,2, status,0
  2912 ;; Tracked objects:
  2913 ;;		On entry : 0/0
  2914 ;;		On exit  : 0/0
  2915 ;;		Unchanged: 0/0
  2916 ;; Data sizes:     COMRAM   BANK0   BANK1   BANK2   BANK3   BANK4   BANK5   BANK6   BANK7   BANK8   BANK9  BANK10  BANK1
      +1  BANK12  BANK13  BANK14  BANK15
  2917 ;;      Params:         4       0       0       0       0       0       0       0       0       0       0       0       
      +0       0       0       0       0
  2918 ;;      Locals:         2       0       0       0       0       0       0       0       0       0       0       0       
      +0       0       0       0       0
  2919 ;;      Temps:          0       0       0       0       0       0       0       0       0       0       0       0       
      +0       0       0       0       0
  2920 ;;      Totals:         6       0       0       0       0       0       0       0       0       0       0       0       
      +0       0       0       0       0
  2921 ;;Total ram usage:        6 bytes
  2922 ;; Hardware stack levels used: 1
  2923 ;; Hardware stack levels required when called: 3
  2924 ;; This function calls:
  2925 ;;		Nothing
  2926 ;; This function is called by:
  2927 ;;		_main
  2928 ;;		_vfpfcnvrt
  2929 ;; This function uses a non-reentrant model
  2930 ;;
  2931                           
  2932                           	psect	text17
  2933   001BBC                     __ptext17:
  2934                           	callstack 0
  2935   001BBC                     ___awmod:
  2936                           	callstack 23
  2937   001BBC  0E00               	movlw	0
  2938   001BBE  6E4B               	movwf	___awmod@sign^0,c
  2939   001BC0  BE47               	btfsc	(___awmod@dividend+1)^0,7,c
  2940   001BC2  EFE7  F00D         	goto	u6570
  2941   001BC6  EFE5  F00D         	goto	u6571
  2942   001BCA                     u6571:
  2943   001BCA  EFED  F00D         	goto	l7351
  2944   001BCE                     u6570:
  2945   001BCE  6C46               	negf	___awmod@dividend^0,c
  2946   001BD0  1E47               	comf	(___awmod@dividend+1)^0,f,c
  2947   001BD2  B0D8               	btfsc	status,0,c
  2948   001BD4  2A47               	incf	(___awmod@dividend+1)^0,f,c
  2949   001BD6  0E01               	movlw	1
  2950   001BD8  6E4B               	movwf	___awmod@sign^0,c
  2951   001BDA                     l7351:
  2952   001BDA  BE49               	btfsc	(___awmod@divisor+1)^0,7,c
  2953   001BDC  EFF4  F00D         	goto	u6580
  2954   001BE0  EFF2  F00D         	goto	u6581
  2955   001BE4                     u6581:
  2956   001BE4  EFF8  F00D         	goto	l7355
  2957   001BE8                     u6580:
  2958   001BE8  6C48               	negf	___awmod@divisor^0,c
  2959   001BEA  1E49               	comf	(___awmod@divisor+1)^0,f,c
  2960   001BEC  B0D8               	btfsc	status,0,c
  2961   001BEE  2A49               	incf	(___awmod@divisor+1)^0,f,c
  2962   001BF0                     l7355:
  2963   001BF0  5048               	movf	___awmod@divisor^0,w,c
  2964   001BF2  1049               	iorwf	(___awmod@divisor+1)^0,w,c
  2965   001BF4  B4D8               	btfsc	status,2,c
  2966   001BF6  EFFF  F00D         	goto	u6591
  2967   001BFA  EF01  F00E         	goto	u6590
  2968   001BFE                     u6591:
  2969   001BFE  EF25  F00E         	goto	l7371
  2970   001C02                     u6590:
  2971   001C02  0E01               	movlw	1
  2972   001C04  6E4A               	movwf	___awmod@counter^0,c
  2973   001C06  EF09  F00E         	goto	l7361
  2974   001C0A                     l7359:
  2975   001C0A  90D8               	bcf	status,0,c
  2976   001C0C  3648               	rlcf	___awmod@divisor^0,f,c
  2977   001C0E  3649               	rlcf	(___awmod@divisor+1)^0,f,c
  2978   001C10  2A4A               	incf	___awmod@counter^0,f,c
  2979   001C12                     l7361:
  2980   001C12  AE49               	btfss	(___awmod@divisor+1)^0,7,c
  2981   001C14  EF0E  F00E         	goto	u6601
  2982   001C18  EF10  F00E         	goto	u6600
  2983   001C1C                     u6601:
  2984   001C1C  EF05  F00E         	goto	l7359
  2985   001C20                     u6600:
  2986   001C20                     l7363:
  2987   001C20  5048               	movf	___awmod@divisor^0,w,c
  2988   001C22  5C46               	subwf	___awmod@dividend^0,w,c
  2989   001C24  5049               	movf	(___awmod@divisor+1)^0,w,c
  2990   001C26  5847               	subwfb	(___awmod@dividend+1)^0,w,c
  2991   001C28  A0D8               	btfss	status,0,c
  2992   001C2A  EF19  F00E         	goto	u6611
  2993   001C2E  EF1B  F00E         	goto	u6610
  2994   001C32                     u6611:
  2995   001C32  EF1F  F00E         	goto	l7367
  2996   001C36                     u6610:
  2997   001C36  5048               	movf	___awmod@divisor^0,w,c
  2998   001C38  5E46               	subwf	___awmod@dividend^0,f,c
  2999   001C3A  5049               	movf	(___awmod@divisor+1)^0,w,c
  3000   001C3C  5A47               	subwfb	(___awmod@dividend+1)^0,f,c
  3001   001C3E                     l7367:
  3002   001C3E  90D8               	bcf	status,0,c
  3003   001C40  3249               	rrcf	(___awmod@divisor+1)^0,f,c
  3004   001C42  3248               	rrcf	___awmod@divisor^0,f,c
  3005   001C44  2E4A               	decfsz	___awmod@counter^0,f,c
  3006   001C46  EF10  F00E         	goto	l7363
  3007   001C4A                     l7371:
  3008   001C4A  504B               	movf	___awmod@sign^0,w,c
  3009   001C4C  B4D8               	btfsc	status,2,c
  3010   001C4E  EF2B  F00E         	goto	u6621
  3011   001C52  EF2D  F00E         	goto	u6620
  3012   001C56                     u6621:
  3013   001C56  EF31  F00E         	goto	l7375
  3014   001C5A                     u6620:
  3015   001C5A  6C46               	negf	___awmod@dividend^0,c
  3016   001C5C  1E47               	comf	(___awmod@dividend+1)^0,f,c
  3017   001C5E  B0D8               	btfsc	status,0,c
  3018   001C60  2A47               	incf	(___awmod@dividend+1)^0,f,c
  3019   001C62                     l7375:
  3020   001C62  C046  F046         	movff	___awmod@dividend,?___awmod
  3021   001C66  C047  F047         	movff	___awmod@dividend+1,?___awmod+1
  3022   001C6A  0012               	return		;funcret
  3023   001C6C                     __end_of___awmod:
  3024                           	callstack 0
  3025                           
  3026 ;; *************** function ___awdiv *****************
  3027 ;; Defined at:
  3028 ;;		line 7 in file "C:\Program Files\Microchip\xc8\v2.45\pic\sources\c99\common\awdiv.c"
  3029 ;; Parameters:    Size  Location     Type
  3030 ;;  dividend        2    3[COMRAM] int 
  3031 ;;  divisor         2    5[COMRAM] int 
  3032 ;; Auto vars:     Size  Location     Type
  3033 ;;  quotient        2    9[COMRAM] int 
  3034 ;;  sign            1    8[COMRAM] unsigned char 
  3035 ;;  counter         1    7[COMRAM] unsigned char 
  3036 ;; Return value:  Size  Location     Type
  3037 ;;                  2    3[COMRAM] int 
  3038 ;; Registers used:
  3039 ;;		wreg, status,2, status,0
  3040 ;; Tracked objects:
  3041 ;;		On entry : 0/0
  3042 ;;		On exit  : 0/0
  3043 ;;		Unchanged: 0/0
  3044 ;; Data sizes:     COMRAM   BANK0   BANK1   BANK2   BANK3   BANK4   BANK5   BANK6   BANK7   BANK8   BANK9  BANK10  BANK1
      +1  BANK12  BANK13  BANK14  BANK15
  3045 ;;      Params:         4       0       0       0       0       0       0       0       0       0       0       0       
      +0       0       0       0       0
  3046 ;;      Locals:         4       0       0       0       0       0       0       0       0       0       0       0       
      +0       0       0       0       0
  3047 ;;      Temps:          0       0       0       0       0       0       0       0       0       0       0       0       
      +0       0       0       0       0
  3048 ;;      Totals:         8       0       0       0       0       0       0       0       0       0       0       0       
      +0       0       0       0       0
  3049 ;;Total ram usage:        8 bytes
  3050 ;; Hardware stack levels used: 1
  3051 ;; Hardware stack levels required when called: 3
  3052 ;; This function calls:
  3053 ;;		Nothing
  3054 ;; This function is called by:
  3055 ;;		_main
  3056 ;;		_vfpfcnvrt
  3057 ;; This function uses a non-reentrant model
  3058 ;;
  3059                           
  3060                           	psect	text18
  3061   001AF8                     __ptext18:
  3062                           	callstack 0
  3063   001AF8                     ___awdiv:
  3064                           	callstack 23
  3065   001AF8  0E00               	movlw	0
  3066   001AFA  6E4B               	movwf	___awdiv@sign^0,c
  3067   001AFC  BE49               	btfsc	(___awdiv@divisor+1)^0,7,c
  3068   001AFE  EF85  F00D         	goto	u6510
  3069   001B02  EF83  F00D         	goto	u6511
  3070   001B06                     u6511:
  3071   001B06  EF8B  F00D         	goto	l7307
  3072   001B0A                     u6510:
  3073   001B0A  6C48               	negf	___awdiv@divisor^0,c
  3074   001B0C  1E49               	comf	(___awdiv@divisor+1)^0,f,c
  3075   001B0E  B0D8               	btfsc	status,0,c
  3076   001B10  2A49               	incf	(___awdiv@divisor+1)^0,f,c
  3077   001B12  0E01               	movlw	1
  3078   001B14  6E4B               	movwf	___awdiv@sign^0,c
  3079   001B16                     l7307:
  3080   001B16  BE47               	btfsc	(___awdiv@dividend+1)^0,7,c
  3081   001B18  EF92  F00D         	goto	u6520
  3082   001B1C  EF90  F00D         	goto	u6521
  3083   001B20                     u6521:
  3084   001B20  EF98  F00D         	goto	l7313
  3085   001B24                     u6520:
  3086   001B24  6C46               	negf	___awdiv@dividend^0,c
  3087   001B26  1E47               	comf	(___awdiv@dividend+1)^0,f,c
  3088   001B28  B0D8               	btfsc	status,0,c
  3089   001B2A  2A47               	incf	(___awdiv@dividend+1)^0,f,c
  3090   001B2C  0E01               	movlw	1
  3091   001B2E  1A4B               	xorwf	___awdiv@sign^0,f,c
  3092   001B30                     l7313:
  3093   001B30  0E00               	movlw	0
  3094   001B32  6E4D               	movwf	(___awdiv@quotient+1)^0,c
  3095   001B34  0E00               	movlw	0
  3096   001B36  6E4C               	movwf	___awdiv@quotient^0,c
  3097   001B38  5048               	movf	___awdiv@divisor^0,w,c
  3098   001B3A  1049               	iorwf	(___awdiv@divisor+1)^0,w,c
  3099   001B3C  B4D8               	btfsc	status,2,c
  3100   001B3E  EFA3  F00D         	goto	u6531
  3101   001B42  EFA5  F00D         	goto	u6530
  3102   001B46                     u6531:
  3103   001B46  EFCD  F00D         	goto	l7335
  3104   001B4A                     u6530:
  3105   001B4A  0E01               	movlw	1
  3106   001B4C  6E4A               	movwf	___awdiv@counter^0,c
  3107   001B4E  EFAD  F00D         	goto	l7321
  3108   001B52                     l7319:
  3109   001B52  90D8               	bcf	status,0,c
  3110   001B54  3648               	rlcf	___awdiv@divisor^0,f,c
  3111   001B56  3649               	rlcf	(___awdiv@divisor+1)^0,f,c
  3112   001B58  2A4A               	incf	___awdiv@counter^0,f,c
  3113   001B5A                     l7321:
  3114   001B5A  AE49               	btfss	(___awdiv@divisor+1)^0,7,c
  3115   001B5C  EFB2  F00D         	goto	u6541
  3116   001B60  EFB4  F00D         	goto	u6540
  3117   001B64                     u6541:
  3118   001B64  EFA9  F00D         	goto	l7319
  3119   001B68                     u6540:
  3120   001B68                     l7323:
  3121   001B68  90D8               	bcf	status,0,c
  3122   001B6A  364C               	rlcf	___awdiv@quotient^0,f,c
  3123   001B6C  364D               	rlcf	(___awdiv@quotient+1)^0,f,c
  3124   001B6E  5048               	movf	___awdiv@divisor^0,w,c
  3125   001B70  5C46               	subwf	___awdiv@dividend^0,w,c
  3126   001B72  5049               	movf	(___awdiv@divisor+1)^0,w,c
  3127   001B74  5847               	subwfb	(___awdiv@dividend+1)^0,w,c
  3128   001B76  A0D8               	btfss	status,0,c
  3129   001B78  EFC0  F00D         	goto	u6551
  3130   001B7C  EFC2  F00D         	goto	u6550
  3131   001B80                     u6551:
  3132   001B80  EFC7  F00D         	goto	l7331
  3133   001B84                     u6550:
  3134   001B84  5048               	movf	___awdiv@divisor^0,w,c
  3135   001B86  5E46               	subwf	___awdiv@dividend^0,f,c
  3136   001B88  5049               	movf	(___awdiv@divisor+1)^0,w,c
  3137   001B8A  5A47               	subwfb	(___awdiv@dividend+1)^0,f,c
  3138   001B8C  804C               	bsf	___awdiv@quotient^0,0,c
  3139   001B8E                     l7331:
  3140   001B8E  90D8               	bcf	status,0,c
  3141   001B90  3249               	rrcf	(___awdiv@divisor+1)^0,f,c
  3142   001B92  3248               	rrcf	___awdiv@divisor^0,f,c
  3143   001B94  2E4A               	decfsz	___awdiv@counter^0,f,c
  3144   001B96  EFB4  F00D         	goto	l7323
  3145   001B9A                     l7335:
  3146   001B9A  504B               	movf	___awdiv@sign^0,w,c
  3147   001B9C  B4D8               	btfsc	status,2,c
  3148   001B9E  EFD3  F00D         	goto	u6561
  3149   001BA2  EFD5  F00D         	goto	u6560
  3150   001BA6                     u6561:
  3151   001BA6  EFD9  F00D         	goto	l7339
  3152   001BAA                     u6560:
  3153   001BAA  6C4C               	negf	___awdiv@quotient^0,c
  3154   001BAC  1E4D               	comf	(___awdiv@quotient+1)^0,f,c
  3155   001BAE  B0D8               	btfsc	status,0,c
  3156   001BB0  2A4D               	incf	(___awdiv@quotient+1)^0,f,c
  3157   001BB2                     l7339:
  3158   001BB2  C04C  F046         	movff	___awdiv@quotient,?___awdiv
  3159   001BB6  C04D  F047         	movff	___awdiv@quotient+1,?___awdiv+1
  3160   001BBA  0012               	return		;funcret
  3161   001BBC                     __end_of___awdiv:
  3162                           	callstack 0
  3163                           
  3164 ;; *************** function _memset *****************
  3165 ;; Defined at:
  3166 ;;		line 3 in file "C:\Program Files\Microchip\xc8\v2.45\pic\sources\c99\common\memset.c"
  3167 ;; Parameters:    Size  Location     Type
  3168 ;;  dest            1    3[COMRAM] PTR void 
  3169 ;;		 -> hour_nums2(5), minute_nums2(5), second_nums2(5), hour_nums(5), 
  3170 ;;		 -> minute_nums(5), second_nums(5), 
  3171 ;;  c               2    4[COMRAM] int 
  3172 ;;  n               2    6[COMRAM] unsigned int 
  3173 ;; Auto vars:     Size  Location     Type
  3174 ;;  p               1    8[COMRAM] PTR unsigned char 
  3175 ;;		 -> hour_nums2(5), minute_nums2(5), second_nums2(5), hour_nums(5), 
  3176 ;;		 -> minute_nums(5), second_nums(5), 
  3177 ;; Return value:  Size  Location     Type
  3178 ;;                  1    wreg      PTR void 
  3179 ;; Registers used:
  3180 ;;		wreg, fsr2l, fsr2h, status,2, status,0
  3181 ;; Tracked objects:
  3182 ;;		On entry : 0/0
  3183 ;;		On exit  : 0/0
  3184 ;;		Unchanged: 0/0
  3185 ;; Data sizes:     COMRAM   BANK0   BANK1   BANK2   BANK3   BANK4   BANK5   BANK6   BANK7   BANK8   BANK9  BANK10  BANK1
      +1  BANK12  BANK13  BANK14  BANK15
  3186 ;;      Params:         5       0       0       0       0       0       0       0       0       0       0       0       
      +0       0       0       0       0
  3187 ;;      Locals:         1       0       0       0       0       0       0       0       0       0       0       0       
      +0       0       0       0       0
  3188 ;;      Temps:          0       0       0       0       0       0       0       0       0       0       0       0       
      +0       0       0       0       0
  3189 ;;      Totals:         6       0       0       0       0       0       0       0       0       0       0       0       
      +0       0       0       0       0
  3190 ;;Total ram usage:        6 bytes
  3191 ;; Hardware stack levels used: 1
  3192 ;; Hardware stack levels required when called: 3
  3193 ;; This function calls:
  3194 ;;		Nothing
  3195 ;; This function is called by:
  3196 ;;		_convert_uint8_to_string
  3197 ;;		_convert_uint16_to_string
  3198 ;;		_convert_uint32_to_string
  3199 ;; This function uses a non-reentrant model
  3200 ;;
  3201                           
  3202                           	psect	text19
  3203   002354                     __ptext19:
  3204                           	callstack 0
  3205   002354                     _memset:
  3206                           	callstack 26
  3207   002354  C046  F04B         	movff	memset@dest,memset@p
  3208   002358  EFB4  F011         	goto	l7687
  3209   00235C                     l7683:
  3210   00235C  504B               	movf	memset@p^0,w,c
  3211   00235E  6ED9               	movwf	fsr2l,c
  3212   002360  6ADA               	clrf	fsr2h,c
  3213   002362  C047  FFDF         	movff	memset@c,indf2
  3214   002366  2A4B               	incf	memset@p^0,f,c
  3215   002368                     l7687:
  3216   002368  0649               	decf	memset@n^0,f,c
  3217   00236A  A0D8               	btfss	status,0,c
  3218   00236C  064A               	decf	(memset@n+1)^0,f,c
  3219   00236E  2849               	incf	memset@n^0,w,c
  3220   002370  E106               	bnz	u7051
  3221   002372  284A               	incf	(memset@n+1)^0,w,c
  3222   002374  A4D8               	btfss	status,2,c
  3223   002376  EFBF  F011         	goto	u7051
  3224   00237A  EFC1  F011         	goto	u7050
  3225   00237E                     u7051:
  3226   00237E  EFAE  F011         	goto	l7683
  3227   002382                     u7050:
  3228   002382  0012               	return		;funcret
  3229   002384                     __end_of_memset:
  3230                           	callstack 0
  3231                           
  3232 ;; *************** function _app_initialize *****************
  3233 ;; Defined at:
  3234 ;;		line 120 in file "application.c"
  3235 ;; Parameters:    Size  Location     Type
  3236 ;;		None
  3237 ;; Auto vars:     Size  Location     Type
  3238 ;;		None
  3239 ;; Return value:  Size  Location     Type
  3240 ;;                  1    wreg      void 
  3241 ;; Registers used:
  3242 ;;		wreg, fsr2l, fsr2h, status,2, status,0, prodl, prodh, cstack
  3243 ;; Tracked objects:
  3244 ;;		On entry : 0/0
  3245 ;;		On exit  : 0/0
  3246 ;;		Unchanged: 0/0
  3247 ;; Data sizes:     COMRAM   BANK0   BANK1   BANK2   BANK3   BANK4   BANK5   BANK6   BANK7   BANK8   BANK9  BANK10  BANK1
      +1  BANK12  BANK13  BANK14  BANK15
  3248 ;;      Params:         0       0       0       0       0       0       0       0       0       0       0       0       
      +0       0       0       0       0
  3249 ;;      Locals:         0       0       0       0       0       0       0       0       0       0       0       0       
      +0       0       0       0       0
  3250 ;;      Temps:          0       0       0       0       0       0       0       0       0       0       0       0       
      +0       0       0       0       0
  3251 ;;      Totals:         0       0       0       0       0       0       0       0       0       0       0       0       
      +0       0       0       0       0
  3252 ;;Total ram usage:        0 bytes
  3253 ;; Hardware stack levels used: 1
  3254 ;; Hardware stack levels required when called: 7
  3255 ;; This function calls:
  3256 ;;		_lcd_4bit_initialize
  3257 ;; This function is called by:
  3258 ;;		_main
  3259 ;; This function uses a non-reentrant model
  3260 ;;
  3261                           
  3262                           	psect	text20
  3263   00245A                     __ptext20:
  3264                           	callstack 0
  3265   00245A                     _app_initialize:
  3266                           	callstack 23
  3267   00245A                     
  3268                           ;application.c: 122:  lcd_4bit_initialize(&lcd_1);
  3269   00245A  0EF5               	movlw	low _lcd_1
  3270   00245C  6E54               	movwf	lcd_4bit_initialize@lcd^0,c
  3271   00245E  EC0D  F00D         	call	_lcd_4bit_initialize	;wreg free
  3272   002462  0012               	return		;funcret
  3273   002464                     __end_of_app_initialize:
  3274                           	callstack 0
  3275                           
  3276 ;; *************** function _lcd_4bit_initialize *****************
  3277 ;; Defined at:
  3278 ;;		line 14 in file "ECU_Layer/CHR_LCD/ecu_chr_lcd.c"
  3279 ;; Parameters:    Size  Location     Type
  3280 ;;  lcd             1   17[COMRAM] PTR const struct .
  3281 ;;		 -> lcd_1(6), 
  3282 ;; Auto vars:     Size  Location     Type
  3283 ;;  ret             1   20[COMRAM] unsigned char 
  3284 ;;  l_counter       1   19[COMRAM] unsigned char 
  3285 ;; Return value:  Size  Location     Type
  3286 ;;                  1    wreg      unsigned char 
  3287 ;; Registers used:
  3288 ;;		wreg, fsr2l, fsr2h, status,2, status,0, prodl, prodh, cstack
  3289 ;; Tracked objects:
  3290 ;;		On entry : 0/0
  3291 ;;		On exit  : 0/0
  3292 ;;		Unchanged: 0/0
  3293 ;; Data sizes:     COMRAM   BANK0   BANK1   BANK2   BANK3   BANK4   BANK5   BANK6   BANK7   BANK8   BANK9  BANK10  BANK1
      +1  BANK12  BANK13  BANK14  BANK15
  3294 ;;      Params:         1       0       0       0       0       0       0       0       0       0       0       0       
      +0       0       0       0       0
  3295 ;;      Locals:         2       0       0       0       0       0       0       0       0       0       0       0       
      +0       0       0       0       0
  3296 ;;      Temps:          1       0       0       0       0       0       0       0       0       0       0       0       
      +0       0       0       0       0
  3297 ;;      Totals:         4       0       0       0       0       0       0       0       0       0       0       0       
      +0       0       0       0       0
  3298 ;;Total ram usage:        4 bytes
  3299 ;; Hardware stack levels used: 1
  3300 ;; Hardware stack levels required when called: 6
  3301 ;; This function calls:
  3302 ;;		_gpio_pin_intialize
  3303 ;;		_lcd_4bit_send_command
  3304 ;; This function is called by:
  3305 ;;		_app_initialize
  3306 ;; This function uses a non-reentrant model
  3307 ;;
  3308                           
  3309                           	psect	text21
  3310   001A1A                     __ptext21:
  3311                           	callstack 0
  3312   001A1A                     _lcd_4bit_initialize:
  3313                           	callstack 23
  3314   001A1A                     
  3315                           ;ECU_Layer/CHR_LCD/ecu_chr_lcd.c: 16:     uint8 l_counter =0 ;
  3316   001A1A  0E00               	movlw	0
  3317   001A1C  6E56               	movwf	lcd_4bit_initialize@l_counter^0,c
  3318                           
  3319                           ;ECU_Layer/CHR_LCD/ecu_chr_lcd.c: 17:     if((((void*)0)==lcd)){
  3320   001A1E  5054               	movf	lcd_4bit_initialize@lcd^0,w,c
  3321   001A20  A4D8               	btfss	status,2,c
  3322   001A22  EF15  F00D         	goto	u6981
  3323   001A26  EF17  F00D         	goto	u6980
  3324   001A2A                     u6981:
  3325   001A2A  EF19  F00D         	goto	l7565
  3326   001A2E                     u6980:
  3327   001A2E                     
  3328                           ;ECU_Layer/CHR_LCD/ecu_chr_lcd.c: 19:     }else {
  3329   001A2E  EF7B  F00D         	goto	l71
  3330   001A32                     l7565:
  3331                           
  3332                           ;ECU_Layer/CHR_LCD/ecu_chr_lcd.c: 20:         ret= gpio_pin_intialize(&(lcd->pin_Rs));
  3333   001A32  C054  F04E         	movff	lcd_4bit_initialize@lcd,gpio_pin_intialize@_pin_t
  3334   001A36  EC16  F010         	call	_gpio_pin_intialize	;wreg free
  3335   001A3A  6E57               	movwf	lcd_4bit_initialize@ret^0,c
  3336                           
  3337                           ;ECU_Layer/CHR_LCD/ecu_chr_lcd.c: 21:             ret= gpio_pin_intialize(&(lcd->pin_en)
      +                          );
  3338   001A3C  2854               	incf	lcd_4bit_initialize@lcd^0,w,c
  3339   001A3E  6E4E               	movwf	gpio_pin_intialize@_pin_t^0,c
  3340   001A40  EC16  F010         	call	_gpio_pin_intialize	;wreg free
  3341   001A44  6E57               	movwf	lcd_4bit_initialize@ret^0,c
  3342   001A46                     
  3343                           ;ECU_Layer/CHR_LCD/ecu_chr_lcd.c: 22:             for(l_counter = 0 ; l_counter < 4 ; l_
      +                          counter++){
  3344   001A46  0E00               	movlw	0
  3345   001A48  6E56               	movwf	lcd_4bit_initialize@l_counter^0,c
  3346   001A4A                     l7573:
  3347   001A4A  5054               	movf	lcd_4bit_initialize@lcd^0,w,c
  3348   001A4C  2456               	addwf	lcd_4bit_initialize@l_counter^0,w,c
  3349   001A4E  0F02               	addlw	2
  3350   001A50  6E4E               	movwf	gpio_pin_intialize@_pin_t^0,c
  3351   001A52  EC16  F010         	call	_gpio_pin_intialize	;wreg free
  3352   001A56                     
  3353                           ;ECU_Layer/CHR_LCD/ecu_chr_lcd.c: 24:             }
  3354   001A56  2A56               	incf	lcd_4bit_initialize@l_counter^0,f,c
  3355   001A58  0E03               	movlw	3
  3356   001A5A  6456               	cpfsgt	lcd_4bit_initialize@l_counter^0,c
  3357   001A5C  EF32  F00D         	goto	u6991
  3358   001A60  EF34  F00D         	goto	u6990
  3359   001A64                     u6991:
  3360   001A64  EF25  F00D         	goto	l7573
  3361   001A68                     u6990:
  3362   001A68                     
  3363                           ;ECU_Layer/CHR_LCD/ecu_chr_lcd.c: 25:             _delay((unsigned long)((20)*(8000000UL
      +                          /4000.0)));
  3364   001A68  0E34               	movlw	52
  3365   001A6A  6E55               	movwf	??_lcd_4bit_initialize^0,c
  3366   001A6C  0EF2               	movlw	242
  3367   001A6E                     u7837:
  3368   001A6E  2EE8               	decfsz	wreg,f,c
  3369   001A70  D7FE               	bra	u7837
  3370   001A72  2E55               	decfsz	??_lcd_4bit_initialize^0,f,c
  3371   001A74  D7FC               	bra	u7837
  3372   001A76  C054  F051         	movff	lcd_4bit_initialize@lcd,lcd_4bit_send_command@lcd
  3373   001A7A  0E38               	movlw	56
  3374   001A7C  6E52               	movwf	lcd_4bit_send_command@command^0,c
  3375   001A7E  EC73  F010         	call	_lcd_4bit_send_command	;wreg free
  3376   001A82                     
  3377                           ;ECU_Layer/CHR_LCD/ecu_chr_lcd.c: 27:              _delay((unsigned long)((5)*(8000000UL
      +                          /4000.0)));
  3378   001A82  0E0D               	movlw	13
  3379   001A84  6E55               	movwf	??_lcd_4bit_initialize^0,c
  3380   001A86  0EFC               	movlw	252
  3381   001A88                     u7847:
  3382   001A88  2EE8               	decfsz	wreg,f,c
  3383   001A8A  D7FE               	bra	u7847
  3384   001A8C  2E55               	decfsz	??_lcd_4bit_initialize^0,f,c
  3385   001A8E  D7FC               	bra	u7847
  3386   001A90  C054  F051         	movff	lcd_4bit_initialize@lcd,lcd_4bit_send_command@lcd
  3387   001A94  0E38               	movlw	56
  3388   001A96  6E52               	movwf	lcd_4bit_send_command@command^0,c
  3389   001A98  EC73  F010         	call	_lcd_4bit_send_command	;wreg free
  3390   001A9C                     
  3391                           ;ECU_Layer/CHR_LCD/ecu_chr_lcd.c: 29:             _delay((unsigned long)((150)*(8000000U
      +                          L/4000000.0)));
  3392   001A9C  0E64               	movlw	100
  3393   001A9E                     u7857:
  3394   001A9E  2EE8               	decfsz	wreg,f,c
  3395   001AA0  D7FE               	bra	u7857
  3396   001AA2  C054  F051         	movff	lcd_4bit_initialize@lcd,lcd_4bit_send_command@lcd
  3397   001AA6  0E38               	movlw	56
  3398   001AA8  6E52               	movwf	lcd_4bit_send_command@command^0,c
  3399   001AAA  EC73  F010         	call	_lcd_4bit_send_command	;wreg free
  3400   001AAE  C054  F051         	movff	lcd_4bit_initialize@lcd,lcd_4bit_send_command@lcd
  3401   001AB2  0E01               	movlw	1
  3402   001AB4  6E52               	movwf	lcd_4bit_send_command@command^0,c
  3403   001AB6  EC73  F010         	call	_lcd_4bit_send_command	;wreg free
  3404   001ABA  C054  F051         	movff	lcd_4bit_initialize@lcd,lcd_4bit_send_command@lcd
  3405   001ABE  0E02               	movlw	2
  3406   001AC0  6E52               	movwf	lcd_4bit_send_command@command^0,c
  3407   001AC2  EC73  F010         	call	_lcd_4bit_send_command	;wreg free
  3408   001AC6  C054  F051         	movff	lcd_4bit_initialize@lcd,lcd_4bit_send_command@lcd
  3409   001ACA  0E06               	movlw	6
  3410   001ACC  6E52               	movwf	lcd_4bit_send_command@command^0,c
  3411   001ACE  EC73  F010         	call	_lcd_4bit_send_command	;wreg free
  3412   001AD2  C054  F051         	movff	lcd_4bit_initialize@lcd,lcd_4bit_send_command@lcd
  3413   001AD6  0E0C               	movlw	12
  3414   001AD8  6E52               	movwf	lcd_4bit_send_command@command^0,c
  3415   001ADA  EC73  F010         	call	_lcd_4bit_send_command	;wreg free
  3416   001ADE  C054  F051         	movff	lcd_4bit_initialize@lcd,lcd_4bit_send_command@lcd
  3417   001AE2  0E28               	movlw	40
  3418   001AE4  6E52               	movwf	lcd_4bit_send_command@command^0,c
  3419   001AE6  EC73  F010         	call	_lcd_4bit_send_command	;wreg free
  3420   001AEA  C054  F051         	movff	lcd_4bit_initialize@lcd,lcd_4bit_send_command@lcd
  3421   001AEE  0E80               	movlw	128
  3422   001AF0  6E52               	movwf	lcd_4bit_send_command@command^0,c
  3423   001AF2  EC73  F010         	call	_lcd_4bit_send_command	;wreg free
  3424   001AF6                     l71:
  3425   001AF6  0012               	return		;funcret
  3426   001AF8                     __end_of_lcd_4bit_initialize:
  3427                           	callstack 0
  3428                           
  3429 ;; *************** function _lcd_4bit_send_command *****************
  3430 ;; Defined at:
  3431 ;;		line 45 in file "ECU_Layer/CHR_LCD/ecu_chr_lcd.c"
  3432 ;; Parameters:    Size  Location     Type
  3433 ;;  lcd             1   14[COMRAM] PTR const struct .
  3434 ;;		 -> lcd_1(6), 
  3435 ;;  command         1   15[COMRAM] unsigned char 
  3436 ;; Auto vars:     Size  Location     Type
  3437 ;;  ret             1   16[COMRAM] unsigned char 
  3438 ;; Return value:  Size  Location     Type
  3439 ;;                  1    wreg      unsigned char 
  3440 ;; Registers used:
  3441 ;;		wreg, fsr2l, fsr2h, status,2, status,0, prodl, prodh, cstack
  3442 ;; Tracked objects:
  3443 ;;		On entry : 0/0
  3444 ;;		On exit  : 0/0
  3445 ;;		Unchanged: 0/0
  3446 ;; Data sizes:     COMRAM   BANK0   BANK1   BANK2   BANK3   BANK4   BANK5   BANK6   BANK7   BANK8   BANK9  BANK10  BANK1
      +1  BANK12  BANK13  BANK14  BANK15
  3447 ;;      Params:         2       0       0       0       0       0       0       0       0       0       0       0       
      +0       0       0       0       0
  3448 ;;      Locals:         1       0       0       0       0       0       0       0       0       0       0       0       
      +0       0       0       0       0
  3449 ;;      Temps:          0       0       0       0       0       0       0       0       0       0       0       0       
      +0       0       0       0       0
  3450 ;;      Totals:         3       0       0       0       0       0       0       0       0       0       0       0       
      +0       0       0       0       0
  3451 ;;Total ram usage:        3 bytes
  3452 ;; Hardware stack levels used: 1
  3453 ;; Hardware stack levels required when called: 5
  3454 ;; This function calls:
  3455 ;;		_gpio_pin_write_logic
  3456 ;;		_lcd_send_4bit_command_data
  3457 ;;		_lcd_send_4bit_enable
  3458 ;; This function is called by:
  3459 ;;		_lcd_4bit_initialize
  3460 ;;		_lcd_set_cursor_4bit
  3461 ;; This function uses a non-reentrant model
  3462 ;;
  3463                           
  3464                           	psect	text22
  3465   0020E6                     __ptext22:
  3466                           	callstack 0
  3467   0020E6                     _lcd_4bit_send_command:
  3468                           	callstack 23
  3469   0020E6                     
  3470                           ;ECU_Layer/CHR_LCD/ecu_chr_lcd.c: 47:     if((((void*)0)==lcd)){
  3471   0020E6  5051               	movf	lcd_4bit_send_command@lcd^0,w,c
  3472   0020E8  A4D8               	btfss	status,2,c
  3473   0020EA  EF79  F010         	goto	u6881
  3474   0020EE  EF7B  F010         	goto	u6880
  3475   0020F2                     u6881:
  3476   0020F2  EF7F  F010         	goto	l7513
  3477   0020F6                     u6880:
  3478   0020F6                     
  3479                           ;ECU_Layer/CHR_LCD/ecu_chr_lcd.c: 48:         ret =(Std_ReturnType)0x00 ;
  3480   0020F6  0E00               	movlw	0
  3481   0020F8  6E53               	movwf	lcd_4bit_send_command@ret^0,c
  3482                           
  3483                           ;ECU_Layer/CHR_LCD/ecu_chr_lcd.c: 49:     }else {
  3484   0020FA  EF9F  F010         	goto	l7515
  3485   0020FE                     l7513:
  3486                           
  3487                           ;ECU_Layer/CHR_LCD/ecu_chr_lcd.c: 50:         ret = gpio_pin_write_logic(&(lcd->pin_Rs) 
      +                          , LOGIC_LOW);
  3488   0020FE  C051  F046         	movff	lcd_4bit_send_command@lcd,gpio_pin_write_logic@_pin_t
  3489   002102  0E00               	movlw	0
  3490   002104  6E47               	movwf	gpio_pin_write_logic@logic^0,c
  3491   002106  EC85  F00C         	call	_gpio_pin_write_logic	;wreg free
  3492   00210A  6E53               	movwf	lcd_4bit_send_command@ret^0,c
  3493                           
  3494                           ;ECU_Layer/CHR_LCD/ecu_chr_lcd.c: 51:         ret = lcd_send_4bit_command_data((lcd) , c
      +                          ommand>>4);
  3495   00210C  C051  F04E         	movff	lcd_4bit_send_command@lcd,lcd_send_4bit_command_data@lcd
  3496   002110  3852               	swapf	lcd_4bit_send_command@command^0,w,c
  3497   002112  0B0F               	andlw	15
  3498   002114  6E4F               	movwf	lcd_send_4bit_command_data@data^0,c
  3499   002116  ECAE  F00F         	call	_lcd_send_4bit_command_data	;wreg free
  3500   00211A  6E53               	movwf	lcd_4bit_send_command@ret^0,c
  3501                           
  3502                           ;ECU_Layer/CHR_LCD/ecu_chr_lcd.c: 52:         ret = lcd_send_4bit_enable((lcd));
  3503   00211C  C051  F04E         	movff	lcd_4bit_send_command@lcd,lcd_send_4bit_enable@lcd
  3504   002120  ECE3  F010         	call	_lcd_send_4bit_enable	;wreg free
  3505   002124  6E53               	movwf	lcd_4bit_send_command@ret^0,c
  3506                           
  3507                           ;ECU_Layer/CHR_LCD/ecu_chr_lcd.c: 53:          ret = lcd_send_4bit_command_data((lcd) , 
      +                          command);
  3508   002126  C051  F04E         	movff	lcd_4bit_send_command@lcd,lcd_send_4bit_command_data@lcd
  3509   00212A  C052  F04F         	movff	lcd_4bit_send_command@command,lcd_send_4bit_command_data@data
  3510   00212E  ECAE  F00F         	call	_lcd_send_4bit_command_data	;wreg free
  3511   002132  6E53               	movwf	lcd_4bit_send_command@ret^0,c
  3512                           
  3513                           ;ECU_Layer/CHR_LCD/ecu_chr_lcd.c: 54:         ret = lcd_send_4bit_enable((lcd));
  3514   002134  C051  F04E         	movff	lcd_4bit_send_command@lcd,lcd_send_4bit_enable@lcd
  3515   002138  ECE3  F010         	call	_lcd_send_4bit_enable	;wreg free
  3516   00213C  6E53               	movwf	lcd_4bit_send_command@ret^0,c
  3517   00213E                     l7515:
  3518                           
  3519                           ;ECU_Layer/CHR_LCD/ecu_chr_lcd.c: 57:     return ret ;
  3520   00213E  5053               	movf	lcd_4bit_send_command@ret^0,w,c
  3521   002140  0012               	return		;funcret
  3522   002142                     __end_of_lcd_4bit_send_command:
  3523                           	callstack 0
  3524                           
  3525 ;; *************** function _lcd_send_4bit_enable *****************
  3526 ;; Defined at:
  3527 ;;		line 313 in file "ECU_Layer/CHR_LCD/ecu_chr_lcd.c"
  3528 ;; Parameters:    Size  Location     Type
  3529 ;;  lcd             1   11[COMRAM] PTR const struct .
  3530 ;;		 -> lcd_1(6), 
  3531 ;; Auto vars:     Size  Location     Type
  3532 ;;  ret             1   12[COMRAM] unsigned char 
  3533 ;; Return value:  Size  Location     Type
  3534 ;;                  1    wreg      unsigned char 
  3535 ;; Registers used:
  3536 ;;		wreg, fsr2l, fsr2h, status,2, status,0, prodl, prodh, cstack
  3537 ;; Tracked objects:
  3538 ;;		On entry : 0/0
  3539 ;;		On exit  : 0/0
  3540 ;;		Unchanged: 0/0
  3541 ;; Data sizes:     COMRAM   BANK0   BANK1   BANK2   BANK3   BANK4   BANK5   BANK6   BANK7   BANK8   BANK9  BANK10  BANK1
      +1  BANK12  BANK13  BANK14  BANK15
  3542 ;;      Params:         1       0       0       0       0       0       0       0       0       0       0       0       
      +0       0       0       0       0
  3543 ;;      Locals:         1       0       0       0       0       0       0       0       0       0       0       0       
      +0       0       0       0       0
  3544 ;;      Temps:          0       0       0       0       0       0       0       0       0       0       0       0       
      +0       0       0       0       0
  3545 ;;      Totals:         2       0       0       0       0       0       0       0       0       0       0       0       
      +0       0       0       0       0
  3546 ;;Total ram usage:        2 bytes
  3547 ;; Hardware stack levels used: 1
  3548 ;; Hardware stack levels required when called: 4
  3549 ;; This function calls:
  3550 ;;		_gpio_pin_write_logic
  3551 ;; This function is called by:
  3552 ;;		_lcd_4bit_send_command
  3553 ;;		_lcd_4bit_send_data_char
  3554 ;; This function uses a non-reentrant model
  3555 ;;
  3556                           
  3557                           	psect	text23
  3558   0021C6                     __ptext23:
  3559                           	callstack 0
  3560   0021C6                     _lcd_send_4bit_enable:
  3561                           	callstack 23
  3562   0021C6                     
  3563                           ;ECU_Layer/CHR_LCD/ecu_chr_lcd.c: 316:     if((((void*)0)==lcd)){
  3564   0021C6  504E               	movf	lcd_send_4bit_enable@lcd^0,w,c
  3565   0021C8  A4D8               	btfss	status,2,c
  3566   0021CA  EFE9  F010         	goto	u6751
  3567   0021CE  EFEB  F010         	goto	u6750
  3568   0021D2                     u6751:
  3569   0021D2  EFEF  F010         	goto	l7435
  3570   0021D6                     u6750:
  3571   0021D6                     
  3572                           ;ECU_Layer/CHR_LCD/ecu_chr_lcd.c: 317:         ret =(Std_ReturnType)0x00 ;
  3573   0021D6  0E00               	movlw	0
  3574   0021D8  6E4F               	movwf	lcd_send_4bit_enable@ret^0,c
  3575                           
  3576                           ;ECU_Layer/CHR_LCD/ecu_chr_lcd.c: 318:     }else {
  3577   0021DA  EF01  F011         	goto	l7443
  3578   0021DE                     l7435:
  3579   0021DE  284E               	incf	lcd_send_4bit_enable@lcd^0,w,c
  3580   0021E0  6E46               	movwf	gpio_pin_write_logic@_pin_t^0,c
  3581   0021E2  0E01               	movlw	1
  3582   0021E4  6E47               	movwf	gpio_pin_write_logic@logic^0,c
  3583   0021E6  EC85  F00C         	call	_gpio_pin_write_logic	;wreg free
  3584   0021EA                     
  3585                           ;ECU_Layer/CHR_LCD/ecu_chr_lcd.c: 320:          _delay((unsigned long)((5)*(8000000UL/40
      +                          00000.0)));
  3586   0021EA  0E03               	movlw	3
  3587   0021EC                     u7867:
  3588   0021EC  2EE8               	decfsz	wreg,f,c
  3589   0021EE  D7FE               	bra	u7867
  3590   0021F0  0000               	nop	
  3591   0021F2  284E               	incf	lcd_send_4bit_enable@lcd^0,w,c
  3592   0021F4  6E46               	movwf	gpio_pin_write_logic@_pin_t^0,c
  3593   0021F6  0E00               	movlw	0
  3594   0021F8  6E47               	movwf	gpio_pin_write_logic@logic^0,c
  3595   0021FA  EC85  F00C         	call	_gpio_pin_write_logic	;wreg free
  3596   0021FE                     
  3597                           ;ECU_Layer/CHR_LCD/ecu_chr_lcd.c: 322:         ret= (Std_ReturnType)0x01 ;
  3598   0021FE  0E01               	movlw	1
  3599   002200  6E4F               	movwf	lcd_send_4bit_enable@ret^0,c
  3600   002202                     l7443:
  3601                           
  3602                           ;ECU_Layer/CHR_LCD/ecu_chr_lcd.c: 324:     return ret ;
  3603   002202  504F               	movf	lcd_send_4bit_enable@ret^0,w,c
  3604   002204  0012               	return		;funcret
  3605   002206                     __end_of_lcd_send_4bit_enable:
  3606                           	callstack 0
  3607                           
  3608 ;; *************** function _lcd_send_4bit_command_data *****************
  3609 ;; Defined at:
  3610 ;;		line 287 in file "ECU_Layer/CHR_LCD/ecu_chr_lcd.c"
  3611 ;; Parameters:    Size  Location     Type
  3612 ;;  lcd             1   11[COMRAM] PTR const struct .
  3613 ;;		 -> lcd_1(6), 
  3614 ;;  data            1   12[COMRAM] unsigned char 
  3615 ;; Auto vars:     Size  Location     Type
  3616 ;;  ret             1    0        unsigned char 
  3617 ;;  ret             1   13[COMRAM] unsigned char 
  3618 ;; Return value:  Size  Location     Type
  3619 ;;                  1    wreg      unsigned char 
  3620 ;; Registers used:
  3621 ;;		wreg, fsr2l, fsr2h, status,2, status,0, prodl, prodh, cstack
  3622 ;; Tracked objects:
  3623 ;;		On entry : 0/0
  3624 ;;		On exit  : 0/0
  3625 ;;		Unchanged: 0/0
  3626 ;; Data sizes:     COMRAM   BANK0   BANK1   BANK2   BANK3   BANK4   BANK5   BANK6   BANK7   BANK8   BANK9  BANK10  BANK1
      +1  BANK12  BANK13  BANK14  BANK15
  3627 ;;      Params:         2       0       0       0       0       0       0       0       0       0       0       0       
      +0       0       0       0       0
  3628 ;;      Locals:         1       0       0       0       0       0       0       0       0       0       0       0       
      +0       0       0       0       0
  3629 ;;      Temps:          0       0       0       0       0       0       0       0       0       0       0       0       
      +0       0       0       0       0
  3630 ;;      Totals:         3       0       0       0       0       0       0       0       0       0       0       0       
      +0       0       0       0       0
  3631 ;;Total ram usage:        3 bytes
  3632 ;; Hardware stack levels used: 1
  3633 ;; Hardware stack levels required when called: 4
  3634 ;; This function calls:
  3635 ;;		_gpio_pin_write_logic
  3636 ;; This function is called by:
  3637 ;;		_lcd_4bit_send_command
  3638 ;;		_lcd_4bit_send_data_char
  3639 ;; This function uses a non-reentrant model
  3640 ;;
  3641                           
  3642                           	psect	text24
  3643   001F5C                     __ptext24:
  3644                           	callstack 0
  3645   001F5C                     _lcd_send_4bit_command_data:
  3646                           	callstack 23
  3647   001F5C                     
  3648                           ;ECU_Layer/CHR_LCD/ecu_chr_lcd.c: 289:     if((((void*)0)==lcd)){
  3649   001F5C  504E               	movf	lcd_send_4bit_command_data@lcd^0,w,c
  3650   001F5E  A4D8               	btfss	status,2,c
  3651   001F60  EFB4  F00F         	goto	u6741
  3652   001F64  EFB6  F00F         	goto	u6740
  3653   001F68                     u6741:
  3654   001F68  EFBA  F00F         	goto	l7423
  3655   001F6C                     u6740:
  3656   001F6C                     
  3657                           ;ECU_Layer/CHR_LCD/ecu_chr_lcd.c: 290:         ret =(Std_ReturnType)0x00 ;
  3658   001F6C  0E00               	movlw	0
  3659   001F6E  6E50               	movwf	lcd_send_4bit_command_data@ret^0,c
  3660                           
  3661                           ;ECU_Layer/CHR_LCD/ecu_chr_lcd.c: 291:     }else {
  3662   001F70  EFE3  F00F         	goto	l7427
  3663   001F74                     l7423:
  3664                           
  3665                           ;ECU_Layer/CHR_LCD/ecu_chr_lcd.c: 292:          ret = gpio_pin_write_logic(&(lcd->lcd_pi
      +                          ns[0]),(data>>0 )&(uint8)(0x01));
  3666   001F74  504E               	movf	lcd_send_4bit_command_data@lcd^0,w,c
  3667   001F76  0F02               	addlw	2
  3668   001F78  6E46               	movwf	gpio_pin_write_logic@_pin_t^0,c
  3669   001F7A  504F               	movf	lcd_send_4bit_command_data@data^0,w,c
  3670   001F7C  0B01               	andlw	1
  3671   001F7E  6E47               	movwf	gpio_pin_write_logic@logic^0,c
  3672   001F80  EC85  F00C         	call	_gpio_pin_write_logic	;wreg free
  3673   001F84  6E50               	movwf	lcd_send_4bit_command_data@ret^0,c
  3674                           
  3675                           ;ECU_Layer/CHR_LCD/ecu_chr_lcd.c: 293:          ret = gpio_pin_write_logic(&(lcd->lcd_pi
      +                          ns[1]),(data>>1 )&(uint8)(0x01));
  3676   001F86  504E               	movf	lcd_send_4bit_command_data@lcd^0,w,c
  3677   001F88  0F03               	addlw	3
  3678   001F8A  6E46               	movwf	gpio_pin_write_logic@_pin_t^0,c
  3679   001F8C  90D8               	bcf	status,0,c
  3680   001F8E  304F               	rrcf	lcd_send_4bit_command_data@data^0,w,c
  3681   001F90  0B01               	andlw	1
  3682   001F92  6E47               	movwf	gpio_pin_write_logic@logic^0,c
  3683   001F94  EC85  F00C         	call	_gpio_pin_write_logic	;wreg free
  3684   001F98  6E50               	movwf	lcd_send_4bit_command_data@ret^0,c
  3685                           
  3686                           ;ECU_Layer/CHR_LCD/ecu_chr_lcd.c: 294:           ret = gpio_pin_write_logic(&(lcd->lcd_p
      +                          ins[2]),(data >>2)&(uint8)(0x01));
  3687   001F9A  504E               	movf	lcd_send_4bit_command_data@lcd^0,w,c
  3688   001F9C  0F04               	addlw	4
  3689   001F9E  6E46               	movwf	gpio_pin_write_logic@_pin_t^0,c
  3690   001FA0  404F               	rrncf	lcd_send_4bit_command_data@data^0,w,c
  3691   001FA2  42E8               	rrncf	wreg,f,c
  3692   001FA4  0B3F               	andlw	63
  3693   001FA6  0B01               	andlw	1
  3694   001FA8  6E47               	movwf	gpio_pin_write_logic@logic^0,c
  3695   001FAA  EC85  F00C         	call	_gpio_pin_write_logic	;wreg free
  3696   001FAE  6E50               	movwf	lcd_send_4bit_command_data@ret^0,c
  3697                           
  3698                           ;ECU_Layer/CHR_LCD/ecu_chr_lcd.c: 295:            ret = gpio_pin_write_logic(&(lcd->lcd_
      +                          pins[3]),(data >>3)&(uint8)(0x01));
  3699   001FB0  504E               	movf	lcd_send_4bit_command_data@lcd^0,w,c
  3700   001FB2  0F05               	addlw	5
  3701   001FB4  6E46               	movwf	gpio_pin_write_logic@_pin_t^0,c
  3702   001FB6  384F               	swapf	lcd_send_4bit_command_data@data^0,w,c
  3703   001FB8  46E8               	rlncf	wreg,f,c
  3704   001FBA  0B1F               	andlw	31
  3705   001FBC  0B01               	andlw	1
  3706   001FBE  6E47               	movwf	gpio_pin_write_logic@logic^0,c
  3707   001FC0  EC85  F00C         	call	_gpio_pin_write_logic	;wreg free
  3708   001FC4  6E50               	movwf	lcd_send_4bit_command_data@ret^0,c
  3709   001FC6                     l7427:
  3710                           
  3711                           ;ECU_Layer/CHR_LCD/ecu_chr_lcd.c: 298:     return ret ;
  3712   001FC6  5050               	movf	lcd_send_4bit_command_data@ret^0,w,c
  3713   001FC8  0012               	return		;funcret
  3714   001FCA                     __end_of_lcd_send_4bit_command_data:
  3715                           	callstack 0
  3716                           
  3717 ;; *************** function _gpio_pin_intialize *****************
  3718 ;; Defined at:
  3719 ;;		line 155 in file "MCAL_Layer/GPIO/hal_gpio.c"
  3720 ;; Parameters:    Size  Location     Type
  3721 ;;  _pin_t          1   11[COMRAM] PTR struct .
  3722 ;;		 -> lcd_1$lcd_pins(4), lcd_1$pin_en(1), lcd_1$pin_Rs(1), lcd_1(6), 
  3723 ;;		 -> spi_slave_mode_configuration@SS_PIN(1), spi_slave_mode_configuration@SKL(1), spi_slave_mode_configuration@SDI(1)
      +, spi_slave_mode_configuration@SDO(1), 
  3724 ;;		 -> spi_master_mode_configuration@SKL(1), spi_master_mode_configuration@SDI(1), spi_master_mode_configuration@SDO(1)
      +, relay_initalize@obj(1), 
  3725 ;;		 -> led_intalize@obj(1), 
  3726 ;; Auto vars:     Size  Location     Type
  3727 ;;  ret             1   13[COMRAM] unsigned char 
  3728 ;; Return value:  Size  Location     Type
  3729 ;;                  1    wreg      unsigned char 
  3730 ;; Registers used:
  3731 ;;		wreg, fsr2l, fsr2h, status,2, status,0, prodl, prodh, cstack
  3732 ;; Tracked objects:
  3733 ;;		On entry : 0/0
  3734 ;;		On exit  : 0/0
  3735 ;;		Unchanged: 0/0
  3736 ;; Data sizes:     COMRAM   BANK0   BANK1   BANK2   BANK3   BANK4   BANK5   BANK6   BANK7   BANK8   BANK9  BANK10  BANK1
      +1  BANK12  BANK13  BANK14  BANK15
  3737 ;;      Params:         1       0       0       0       0       0       0       0       0       0       0       0       
      +0       0       0       0       0
  3738 ;;      Locals:         1       0       0       0       0       0       0       0       0       0       0       0       
      +0       0       0       0       0
  3739 ;;      Temps:          1       0       0       0       0       0       0       0       0       0       0       0       
      +0       0       0       0       0
  3740 ;;      Totals:         3       0       0       0       0       0       0       0       0       0       0       0       
      +0       0       0       0       0
  3741 ;;Total ram usage:        3 bytes
  3742 ;; Hardware stack levels used: 1
  3743 ;; Hardware stack levels required when called: 4
  3744 ;; This function calls:
  3745 ;;		_gpio_pin_direction_intialize
  3746 ;;		_gpio_pin_write_logic
  3747 ;; This function is called by:
  3748 ;;		_lcd_4bit_initialize
  3749 ;;		_Segment_initalize
  3750 ;;		_lcd_8bit_initialize
  3751 ;;		_motor_initialize
  3752 ;;		_keypad_initialize
  3753 ;;		_led_intalize
  3754 ;;		_relay_initalize
  3755 ;;		_CCP_INIt
  3756 ;;		_spi_master_mode_configuration
  3757 ;;		_spi_slave_mode_configuration
  3758 ;; This function uses a non-reentrant model
  3759 ;;
  3760                           
  3761                           	psect	text25
  3762   00202C                     __ptext25:
  3763                           	callstack 0
  3764   00202C                     _gpio_pin_intialize:
  3765                           	callstack 24
  3766   00202C                     
  3767                           ;MCAL_Layer/GPIO/hal_gpio.c: 158:     if((((void*)0) ==_pin_t)|| _pin_t->pin > (8)-1 )
  3768   00202C  504E               	movf	gpio_pin_intialize@_pin_t^0,w,c
  3769   00202E  B4D8               	btfsc	status,2,c
  3770   002030  EF1C  F010         	goto	u6861
  3771   002034  EF1E  F010         	goto	u6860
  3772   002038                     u6861:
  3773   002038  EF2E  F010         	goto	l7501
  3774   00203C                     u6860:
  3775   00203C  504E               	movf	gpio_pin_intialize@_pin_t^0,w,c
  3776   00203E  6ED9               	movwf	fsr2l,c
  3777   002040  6ADA               	clrf	fsr2h,c
  3778   002042  30DF               	rrcf	223,w,c
  3779   002044  32E8               	rrcf	wreg,f,c
  3780   002046  32E8               	rrcf	wreg,f,c
  3781   002048  0B07               	andlw	7
  3782   00204A  6E4F               	movwf	??_gpio_pin_intialize^0,c
  3783   00204C  0E07               	movlw	7
  3784   00204E  644F               	cpfsgt	??_gpio_pin_intialize^0,c
  3785   002050  EF2C  F010         	goto	u6871
  3786   002054  EF2E  F010         	goto	u6870
  3787   002058                     u6871:
  3788   002058  EF32  F010         	goto	l7503
  3789   00205C                     u6870:
  3790   00205C                     l7501:
  3791                           
  3792                           ;MCAL_Layer/GPIO/hal_gpio.c: 159:     {;MCAL_Layer/GPIO/hal_gpio.c: 160:         ret =(S
      +                          td_ReturnType)0x00;
  3793   00205C  0E00               	movlw	0
  3794   00205E  6E50               	movwf	gpio_pin_intialize@ret^0,c
  3795                           
  3796                           ;MCAL_Layer/GPIO/hal_gpio.c: 161:     }
  3797   002060  EF43  F010         	goto	l7505
  3798   002064                     l7503:
  3799                           
  3800                           ;MCAL_Layer/GPIO/hal_gpio.c: 163:     {;MCAL_Layer/GPIO/hal_gpio.c: 164:         ret = g
      +                          pio_pin_direction_intialize(_pin_t);
  3801   002064  C04E  F046         	movff	gpio_pin_intialize@_pin_t,gpio_pin_direction_intialize@__pin_t
  3802   002068  ECF2  F00B         	call	_gpio_pin_direction_intialize	;wreg free
  3803   00206C  6E50               	movwf	gpio_pin_intialize@ret^0,c
  3804                           
  3805                           ;MCAL_Layer/GPIO/hal_gpio.c: 165:         ret = gpio_pin_write_logic(_pin_t ,_pin_t->log
      +                          ic);
  3806   00206E  C04E  F046         	movff	gpio_pin_intialize@_pin_t,gpio_pin_write_logic@_pin_t
  3807   002072  504E               	movf	gpio_pin_intialize@_pin_t^0,w,c
  3808   002074  6ED9               	movwf	fsr2l,c
  3809   002076  6ADA               	clrf	fsr2h,c
  3810   002078  0E00               	movlw	0
  3811   00207A  BEDF               	btfsc	indf2,7,c
  3812   00207C  0E01               	movlw	1
  3813   00207E  6E47               	movwf	gpio_pin_write_logic@logic^0,c
  3814   002080  EC85  F00C         	call	_gpio_pin_write_logic	;wreg free
  3815   002084  6E50               	movwf	gpio_pin_intialize@ret^0,c
  3816   002086                     l7505:
  3817                           
  3818                           ;MCAL_Layer/GPIO/hal_gpio.c: 169: return ret;
  3819   002086  5050               	movf	gpio_pin_intialize@ret^0,w,c
  3820   002088  0012               	return		;funcret
  3821   00208A                     __end_of_gpio_pin_intialize:
  3822                           	callstack 0
  3823                           
  3824 ;; *************** function _gpio_pin_write_logic *****************
  3825 ;; Defined at:
  3826 ;;		line 77 in file "MCAL_Layer/GPIO/hal_gpio.c"
  3827 ;; Parameters:    Size  Location     Type
  3828 ;;  _pin_t          1    3[COMRAM] PTR const struct .
  3829 ;;		 -> lcd_1$lcd_pins(4), lcd_1$pin_en(1), lcd_1$pin_Rs(1), lcd_1(6), 
  3830 ;;		 -> spi_slave_mode_configuration@SS_PIN(1), spi_slave_mode_configuration@SKL(1), spi_slave_mode_configuration@SDI(1)
      +, spi_slave_mode_configuration@SDO(1), 
  3831 ;;		 -> spi_master_mode_configuration@SKL(1), spi_master_mode_configuration@SDI(1), spi_master_mode_configuration@SDO(1)
      +, relay_off@obj(1), 
  3832 ;;		 -> relay_on@obj(1), relay_initalize@obj(1), led_off@obj(1), led_on@obj(1), 
  3833 ;;		 -> led_intalize@obj(1), 
  3834 ;;  logic           1    4[COMRAM] enum E2978
  3835 ;; Auto vars:     Size  Location     Type
  3836 ;;  ret             1   10[COMRAM] unsigned char 
  3837 ;; Return value:  Size  Location     Type
  3838 ;;                  1    wreg      unsigned char 
  3839 ;; Registers used:
  3840 ;;		wreg, fsr2l, fsr2h, status,2, status,0, prodl, prodh
  3841 ;; Tracked objects:
  3842 ;;		On entry : 0/0
  3843 ;;		On exit  : 0/0
  3844 ;;		Unchanged: 0/0
  3845 ;; Data sizes:     COMRAM   BANK0   BANK1   BANK2   BANK3   BANK4   BANK5   BANK6   BANK7   BANK8   BANK9  BANK10  BANK1
      +1  BANK12  BANK13  BANK14  BANK15
  3846 ;;      Params:         2       0       0       0       0       0       0       0       0       0       0       0       
      +0       0       0       0       0
  3847 ;;      Locals:         1       0       0       0       0       0       0       0       0       0       0       0       
      +0       0       0       0       0
  3848 ;;      Temps:          5       0       0       0       0       0       0       0       0       0       0       0       
      +0       0       0       0       0
  3849 ;;      Totals:         8       0       0       0       0       0       0       0       0       0       0       0       
      +0       0       0       0       0
  3850 ;;Total ram usage:        8 bytes
  3851 ;; Hardware stack levels used: 1
  3852 ;; Hardware stack levels required when called: 3
  3853 ;; This function calls:
  3854 ;;		Nothing
  3855 ;; This function is called by:
  3856 ;;		_lcd_4bit_send_command
  3857 ;;		_lcd_4bit_send_data_char
  3858 ;;		_lcd_send_4bit_command_data
  3859 ;;		_lcd_send_4bit_enable
  3860 ;;		_gpio_pin_intialize
  3861 ;;		_Segment_Write_number
  3862 ;;		_lcd_8bit_send_command
  3863 ;;		_lcd_8bit_send_data_char
  3864 ;;		_lcd_send_8bit_enable
  3865 ;;		_motor_move_right
  3866 ;;		_motor_move_left
  3867 ;;		_motor_stop
  3868 ;;		_keypad_get_value
  3869 ;;		_led_on
  3870 ;;		_led_off
  3871 ;;		_relay_on
  3872 ;;		_relay_off
  3873 ;; This function uses a non-reentrant model
  3874 ;;
  3875                           
  3876                           	psect	text26
  3877   00190A                     __ptext26:
  3878                           	callstack 0
  3879   00190A                     _gpio_pin_write_logic:
  3880                           	callstack 23
  3881   00190A                     
  3882                           ;MCAL_Layer/GPIO/hal_gpio.c: 78:     Std_ReturnType ret = (Std_ReturnType)0x01;
  3883   00190A  0E01               	movlw	1
  3884   00190C  6E4D               	movwf	gpio_pin_write_logic@ret^0,c
  3885                           
  3886                           ;MCAL_Layer/GPIO/hal_gpio.c: 79:     if( ((void*)0) ==_pin_t || _pin_t->pin > (8)-1 )
  3887   00190E  5046               	movf	gpio_pin_write_logic@_pin_t^0,w,c
  3888   001910  B4D8               	btfsc	status,2,c
  3889   001912  EF8D  F00C         	goto	u6471
  3890   001916  EF8F  F00C         	goto	u6470
  3891   00191A                     u6471:
  3892   00191A  EF9F  F00C         	goto	l7281
  3893   00191E                     u6470:
  3894   00191E  5046               	movf	gpio_pin_write_logic@_pin_t^0,w,c
  3895   001920  6ED9               	movwf	fsr2l,c
  3896   001922  6ADA               	clrf	fsr2h,c
  3897   001924  30DF               	rrcf	223,w,c
  3898   001926  32E8               	rrcf	wreg,f,c
  3899   001928  32E8               	rrcf	wreg,f,c
  3900   00192A  0B07               	andlw	7
  3901   00192C  6E48               	movwf	??_gpio_pin_write_logic^0,c
  3902   00192E  0E07               	movlw	7
  3903   001930  6448               	cpfsgt	??_gpio_pin_write_logic^0,c
  3904   001932  EF9D  F00C         	goto	u6481
  3905   001936  EF9F  F00C         	goto	u6480
  3906   00193A                     u6481:
  3907   00193A  EFF6  F00C         	goto	l7289
  3908   00193E                     u6480:
  3909   00193E                     l7281:
  3910                           
  3911                           ;MCAL_Layer/GPIO/hal_gpio.c: 80:     {;MCAL_Layer/GPIO/hal_gpio.c: 81:         ret = (St
      +                          d_ReturnType)0x00;
  3912   00193E  0E00               	movlw	0
  3913   001940  6E4D               	movwf	gpio_pin_write_logic@ret^0,c
  3914                           
  3915                           ;MCAL_Layer/GPIO/hal_gpio.c: 82:     }
  3916   001942  EF0B  F00D         	goto	l7291
  3917   001946                     l7283:
  3918                           
  3919                           ;MCAL_Layer/GPIO/hal_gpio.c: 87:               (*lat_registers[_pin_t->port] |= ( (uint8
      +                          ) 1 << _pin_t->pin )) ;
  3920   001946  5046               	movf	gpio_pin_write_logic@_pin_t^0,w,c
  3921   001948  6ED9               	movwf	fsr2l,c
  3922   00194A  6ADA               	clrf	fsr2h,c
  3923   00194C  30DF               	rrcf	223,w,c
  3924   00194E  32E8               	rrcf	wreg,f,c
  3925   001950  32E8               	rrcf	wreg,f,c
  3926   001952  0B07               	andlw	7
  3927   001954  6E48               	movwf	??_gpio_pin_write_logic^0,c
  3928   001956  0E01               	movlw	1
  3929   001958  6E49               	movwf	(??_gpio_pin_write_logic+1)^0,c
  3930   00195A  2A48               	incf	??_gpio_pin_write_logic^0,f,c
  3931   00195C  EFB2  F00C         	goto	u6494
  3932   001960                     u6495:
  3933   001960  90D8               	bcf	status,0,c
  3934   001962  3649               	rlcf	(??_gpio_pin_write_logic+1)^0,f,c
  3935   001964                     u6494:
  3936   001964  2E48               	decfsz	??_gpio_pin_write_logic^0,f,c
  3937   001966  EFB0  F00C         	goto	u6495
  3938   00196A  5046               	movf	gpio_pin_write_logic@_pin_t^0,w,c
  3939   00196C  6ED9               	movwf	fsr2l,c
  3940   00196E  6ADA               	clrf	fsr2h,c
  3941   001970  50DF               	movf	223,w,c
  3942   001972  0B07               	andlw	7
  3943   001974  0D02               	mullw	2
  3944   001976  50F3               	movf	243,w,c
  3945   001978  0FD7               	addlw	low _lat_registers
  3946   00197A  6ED9               	movwf	fsr2l,c
  3947   00197C  6ADA               	clrf	fsr2h,c
  3948   00197E  CFDE F04A          	movff	postinc2,??_gpio_pin_write_logic+2
  3949   001982  CFDD F04B          	movff	postdec2,??_gpio_pin_write_logic+3
  3950   001986  C04A  FFD9         	movff	??_gpio_pin_write_logic+2,fsr2l
  3951   00198A  C04B  FFDA         	movff	??_gpio_pin_write_logic+3,fsr2h
  3952   00198E  5049               	movf	(??_gpio_pin_write_logic+1)^0,w,c
  3953   001990  12DF               	iorwf	indf2,f,c
  3954                           
  3955                           ;MCAL_Layer/GPIO/hal_gpio.c: 88:               break;
  3956   001992  EF0B  F00D         	goto	l7291
  3957   001996                     l7285:
  3958                           
  3959                           ;MCAL_Layer/GPIO/hal_gpio.c: 90:             (*lat_registers[_pin_t->port] &= ~( (uint8)
      +                           1 << _pin_t->pin )) ;
  3960   001996  5046               	movf	gpio_pin_write_logic@_pin_t^0,w,c
  3961   001998  6ED9               	movwf	fsr2l,c
  3962   00199A  6ADA               	clrf	fsr2h,c
  3963   00199C  30DF               	rrcf	223,w,c
  3964   00199E  32E8               	rrcf	wreg,f,c
  3965   0019A0  32E8               	rrcf	wreg,f,c
  3966   0019A2  0B07               	andlw	7
  3967   0019A4  6E48               	movwf	??_gpio_pin_write_logic^0,c
  3968   0019A6  0E01               	movlw	1
  3969   0019A8  6E49               	movwf	(??_gpio_pin_write_logic+1)^0,c
  3970   0019AA  2A48               	incf	??_gpio_pin_write_logic^0,f,c
  3971   0019AC  EFDA  F00C         	goto	u6504
  3972   0019B0                     u6505:
  3973   0019B0  90D8               	bcf	status,0,c
  3974   0019B2  3649               	rlcf	(??_gpio_pin_write_logic+1)^0,f,c
  3975   0019B4                     u6504:
  3976   0019B4  2E48               	decfsz	??_gpio_pin_write_logic^0,f,c
  3977   0019B6  EFD8  F00C         	goto	u6505
  3978   0019BA  5049               	movf	(??_gpio_pin_write_logic+1)^0,w,c
  3979   0019BC  0AFF               	xorlw	255
  3980   0019BE  6E4A               	movwf	(??_gpio_pin_write_logic+2)^0,c
  3981   0019C0  5046               	movf	gpio_pin_write_logic@_pin_t^0,w,c
  3982   0019C2  6ED9               	movwf	fsr2l,c
  3983   0019C4  6ADA               	clrf	fsr2h,c
  3984   0019C6  50DF               	movf	223,w,c
  3985   0019C8  0B07               	andlw	7
  3986   0019CA  0D02               	mullw	2
  3987   0019CC  50F3               	movf	243,w,c
  3988   0019CE  0FD7               	addlw	low _lat_registers
  3989   0019D0  6ED9               	movwf	fsr2l,c
  3990   0019D2  6ADA               	clrf	fsr2h,c
  3991   0019D4  CFDE F04B          	movff	postinc2,??_gpio_pin_write_logic+3
  3992   0019D8  CFDD F04C          	movff	postdec2,??_gpio_pin_write_logic+4
  3993   0019DC  C04B  FFD9         	movff	??_gpio_pin_write_logic+3,fsr2l
  3994   0019E0  C04C  FFDA         	movff	??_gpio_pin_write_logic+4,fsr2h
  3995   0019E4  504A               	movf	(??_gpio_pin_write_logic+2)^0,w,c
  3996   0019E6  16DF               	andwf	indf2,f,c
  3997                           
  3998                           ;MCAL_Layer/GPIO/hal_gpio.c: 91:             break;
  3999   0019E8  EF0B  F00D         	goto	l7291
  4000   0019EC                     l7289:
  4001   0019EC  5047               	movf	gpio_pin_write_logic@logic^0,w,c
  4002   0019EE  6E48               	movwf	??_gpio_pin_write_logic^0,c
  4003   0019F0  6A49               	clrf	(??_gpio_pin_write_logic+1)^0,c
  4004                           
  4005                           ; Switch on 2 bytes has been partitioned into a top level switch of size 1, and 1 sub-sw
      +                          itches
  4006                           ; Switch size 1, requested type "simple"
  4007                           ; Number of cases is 1, Range of values is 0 to 0
  4008                           ; switch strategies available:
  4009                           ; Name         Instructions Cycles
  4010                           ; simple_byte            4     3 (average)
  4011                           ;	Chosen strategy is simple_byte
  4012   0019F2  5049               	movf	(??_gpio_pin_write_logic+1)^0,w,c
  4013   0019F4  0A00               	xorlw	0	; case 0
  4014   0019F6  B4D8               	btfsc	status,2,c
  4015   0019F8  EF00  F00D         	goto	l8555
  4016   0019FC  EF9F  F00C         	goto	l7281
  4017   001A00                     l8555:
  4018                           
  4019                           ; Switch size 1, requested type "simple"
  4020                           ; Number of cases is 2, Range of values is 0 to 1
  4021                           ; switch strategies available:
  4022                           ; Name         Instructions Cycles
  4023                           ; simple_byte            7     4 (average)
  4024                           ;	Chosen strategy is simple_byte
  4025   001A00  5048               	movf	??_gpio_pin_write_logic^0,w,c
  4026   001A02  0A00               	xorlw	0	; case 0
  4027   001A04  B4D8               	btfsc	status,2,c
  4028   001A06  EFCB  F00C         	goto	l7285
  4029   001A0A  0A01               	xorlw	1	; case 1
  4030   001A0C  B4D8               	btfsc	status,2,c
  4031   001A0E  EFA3  F00C         	goto	l7283
  4032   001A12  EF9F  F00C         	goto	l7281
  4033   001A16                     l7291:
  4034                           
  4035                           ;MCAL_Layer/GPIO/hal_gpio.c: 98:     return ret;
  4036   001A16  504D               	movf	gpio_pin_write_logic@ret^0,w,c
  4037   001A18  0012               	return		;funcret
  4038   001A1A                     __end_of_gpio_pin_write_logic:
  4039                           	callstack 0
  4040                           
  4041 ;; *************** function _gpio_pin_direction_intialize *****************
  4042 ;; Defined at:
  4043 ;;		line 22 in file "MCAL_Layer/GPIO/hal_gpio.c"
  4044 ;; Parameters:    Size  Location     Type
  4045 ;;  __pin_t         1    3[COMRAM] PTR const struct .
  4046 ;;		 -> lcd_1$lcd_pins(4), lcd_1$pin_en(1), lcd_1$pin_Rs(1), lcd_1(6), 
  4047 ;;		 -> spi_slave_mode_configuration@SS_PIN(1), spi_slave_mode_configuration@SKL(1), spi_slave_mode_configuration@SDI(1)
      +, spi_slave_mode_configuration@SDO(1), 
  4048 ;;		 -> spi_master_mode_configuration@SKL(1), spi_master_mode_configuration@SDI(1), spi_master_mode_configuration@SDO(1)
      +, relay_initalize@obj(1), 
  4049 ;;		 -> led_intalize@obj(1), 
  4050 ;; Auto vars:     Size  Location     Type
  4051 ;;  ret             1    9[COMRAM] unsigned char 
  4052 ;; Return value:  Size  Location     Type
  4053 ;;                  1    wreg      unsigned char 
  4054 ;; Registers used:
  4055 ;;		wreg, fsr2l, fsr2h, status,2, status,0, prodl, prodh
  4056 ;; Tracked objects:
  4057 ;;		On entry : 0/0
  4058 ;;		On exit  : 0/0
  4059 ;;		Unchanged: 0/0
  4060 ;; Data sizes:     COMRAM   BANK0   BANK1   BANK2   BANK3   BANK4   BANK5   BANK6   BANK7   BANK8   BANK9  BANK10  BANK1
      +1  BANK12  BANK13  BANK14  BANK15
  4061 ;;      Params:         1       0       0       0       0       0       0       0       0       0       0       0       
      +0       0       0       0       0
  4062 ;;      Locals:         1       0       0       0       0       0       0       0       0       0       0       0       
      +0       0       0       0       0
  4063 ;;      Temps:          5       0       0       0       0       0       0       0       0       0       0       0       
      +0       0       0       0       0
  4064 ;;      Totals:         7       0       0       0       0       0       0       0       0       0       0       0       
      +0       0       0       0       0
  4065 ;;Total ram usage:        7 bytes
  4066 ;; Hardware stack levels used: 1
  4067 ;; Hardware stack levels required when called: 3
  4068 ;; This function calls:
  4069 ;;		Nothing
  4070 ;; This function is called by:
  4071 ;;		_gpio_pin_intialize
  4072 ;;		_button_initalize
  4073 ;;		_keypad_initialize
  4074 ;;		_Interrupt_RBx_Init
  4075 ;;		_Interrupt_INTx_Pin_init
  4076 ;;		_Interrupt_RBx_Pin_init
  4077 ;; This function uses a non-reentrant model
  4078 ;;
  4079                           
  4080                           	psect	text27
  4081   0017E4                     __ptext27:
  4082                           	callstack 0
  4083   0017E4                     _gpio_pin_direction_intialize:
  4084                           	callstack 24
  4085   0017E4                     
  4086                           ;MCAL_Layer/GPIO/hal_gpio.c: 23:     Std_ReturnType ret = (Std_ReturnType)0x01;
  4087   0017E4  0E01               	movlw	1
  4088   0017E6  6E4C               	movwf	gpio_pin_direction_intialize@ret^0,c
  4089                           
  4090                           ;MCAL_Layer/GPIO/hal_gpio.c: 24:     if( ((void*)0) ==__pin_t ||__pin_t ->pin > (8)-1 )
  4091   0017E8  5046               	movf	gpio_pin_direction_intialize@__pin_t^0,w,c
  4092   0017EA  B4D8               	btfsc	status,2,c
  4093   0017EC  EFFA  F00B         	goto	u6681
  4094   0017F0  EFFC  F00B         	goto	u6680
  4095   0017F4                     u6681:
  4096   0017F4  EF0C  F00C         	goto	l7401
  4097   0017F8                     u6680:
  4098   0017F8  5046               	movf	gpio_pin_direction_intialize@__pin_t^0,w,c
  4099   0017FA  6ED9               	movwf	fsr2l,c
  4100   0017FC  6ADA               	clrf	fsr2h,c
  4101   0017FE  30DF               	rrcf	223,w,c
  4102   001800  32E8               	rrcf	wreg,f,c
  4103   001802  32E8               	rrcf	wreg,f,c
  4104   001804  0B07               	andlw	7
  4105   001806  6E47               	movwf	??_gpio_pin_direction_intialize^0,c
  4106   001808  0E07               	movlw	7
  4107   00180A  6447               	cpfsgt	??_gpio_pin_direction_intialize^0,c
  4108   00180C  EF0A  F00C         	goto	u6691
  4109   001810  EF0C  F00C         	goto	u6690
  4110   001814                     u6691:
  4111   001814  EF63  F00C         	goto	l7409
  4112   001818                     u6690:
  4113   001818                     l7401:
  4114                           
  4115                           ;MCAL_Layer/GPIO/hal_gpio.c: 25:     {;MCAL_Layer/GPIO/hal_gpio.c: 26:         ret = (St
      +                          d_ReturnType)0x00;
  4116   001818  0E00               	movlw	0
  4117   00181A  6E4C               	movwf	gpio_pin_direction_intialize@ret^0,c
  4118                           
  4119                           ;MCAL_Layer/GPIO/hal_gpio.c: 27:     }
  4120   00181C  EF83  F00C         	goto	l7411
  4121   001820                     l7403:
  4122                           
  4123                           ;MCAL_Layer/GPIO/hal_gpio.c: 33:             (*tris_registers[__pin_t ->port] &= ~( (uin
      +                          t8) 1 << __pin_t ->pin ));
  4124   001820  5046               	movf	gpio_pin_direction_intialize@__pin_t^0,w,c
  4125   001822  6ED9               	movwf	fsr2l,c
  4126   001824  6ADA               	clrf	fsr2h,c
  4127   001826  30DF               	rrcf	223,w,c
  4128   001828  32E8               	rrcf	wreg,f,c
  4129   00182A  32E8               	rrcf	wreg,f,c
  4130   00182C  0B07               	andlw	7
  4131   00182E  6E47               	movwf	??_gpio_pin_direction_intialize^0,c
  4132   001830  0E01               	movlw	1
  4133   001832  6E48               	movwf	(??_gpio_pin_direction_intialize+1)^0,c
  4134   001834  2A47               	incf	??_gpio_pin_direction_intialize^0,f,c
  4135   001836  EF1F  F00C         	goto	u6704
  4136   00183A                     u6705:
  4137   00183A  90D8               	bcf	status,0,c
  4138   00183C  3648               	rlcf	(??_gpio_pin_direction_intialize+1)^0,f,c
  4139   00183E                     u6704:
  4140   00183E  2E47               	decfsz	??_gpio_pin_direction_intialize^0,f,c
  4141   001840  EF1D  F00C         	goto	u6705
  4142   001844  5048               	movf	(??_gpio_pin_direction_intialize+1)^0,w,c
  4143   001846  0AFF               	xorlw	255
  4144   001848  6E49               	movwf	(??_gpio_pin_direction_intialize+2)^0,c
  4145   00184A  5046               	movf	gpio_pin_direction_intialize@__pin_t^0,w,c
  4146   00184C  6ED9               	movwf	fsr2l,c
  4147   00184E  6ADA               	clrf	fsr2h,c
  4148   001850  50DF               	movf	223,w,c
  4149   001852  0B07               	andlw	7
  4150   001854  0D02               	mullw	2
  4151   001856  50F3               	movf	243,w,c
  4152   001858  0FEB               	addlw	low _tris_registers
  4153   00185A  6ED9               	movwf	fsr2l,c
  4154   00185C  6ADA               	clrf	fsr2h,c
  4155   00185E  CFDE F04A          	movff	postinc2,??_gpio_pin_direction_intialize+3
  4156   001862  CFDD F04B          	movff	postdec2,??_gpio_pin_direction_intialize+4
  4157   001866  C04A  FFD9         	movff	??_gpio_pin_direction_intialize+3,fsr2l
  4158   00186A  C04B  FFDA         	movff	??_gpio_pin_direction_intialize+4,fsr2h
  4159   00186E  5049               	movf	(??_gpio_pin_direction_intialize+2)^0,w,c
  4160   001870  16DF               	andwf	indf2,f,c
  4161                           
  4162                           ;MCAL_Layer/GPIO/hal_gpio.c: 34:             break;
  4163   001872  EF83  F00C         	goto	l7411
  4164   001876                     l7405:
  4165                           
  4166                           ;MCAL_Layer/GPIO/hal_gpio.c: 36:             (*tris_registers[__pin_t ->port] |= ( (uint
      +                          8) 1 << __pin_t ->pin ));
  4167   001876  5046               	movf	gpio_pin_direction_intialize@__pin_t^0,w,c
  4168   001878  6ED9               	movwf	fsr2l,c
  4169   00187A  6ADA               	clrf	fsr2h,c
  4170   00187C  30DF               	rrcf	223,w,c
  4171   00187E  32E8               	rrcf	wreg,f,c
  4172   001880  32E8               	rrcf	wreg,f,c
  4173   001882  0B07               	andlw	7
  4174   001884  6E47               	movwf	??_gpio_pin_direction_intialize^0,c
  4175   001886  0E01               	movlw	1
  4176   001888  6E48               	movwf	(??_gpio_pin_direction_intialize+1)^0,c
  4177   00188A  2A47               	incf	??_gpio_pin_direction_intialize^0,f,c
  4178   00188C  EF4A  F00C         	goto	u6714
  4179   001890                     u6715:
  4180   001890  90D8               	bcf	status,0,c
  4181   001892  3648               	rlcf	(??_gpio_pin_direction_intialize+1)^0,f,c
  4182   001894                     u6714:
  4183   001894  2E47               	decfsz	??_gpio_pin_direction_intialize^0,f,c
  4184   001896  EF48  F00C         	goto	u6715
  4185   00189A  5046               	movf	gpio_pin_direction_intialize@__pin_t^0,w,c
  4186   00189C  6ED9               	movwf	fsr2l,c
  4187   00189E  6ADA               	clrf	fsr2h,c
  4188   0018A0  50DF               	movf	223,w,c
  4189   0018A2  0B07               	andlw	7
  4190   0018A4  0D02               	mullw	2
  4191   0018A6  50F3               	movf	243,w,c
  4192   0018A8  0FEB               	addlw	low _tris_registers
  4193   0018AA  6ED9               	movwf	fsr2l,c
  4194   0018AC  6ADA               	clrf	fsr2h,c
  4195   0018AE  CFDE F049          	movff	postinc2,??_gpio_pin_direction_intialize+2
  4196   0018B2  CFDD F04A          	movff	postdec2,??_gpio_pin_direction_intialize+3
  4197   0018B6  C049  FFD9         	movff	??_gpio_pin_direction_intialize+2,fsr2l
  4198   0018BA  C04A  FFDA         	movff	??_gpio_pin_direction_intialize+3,fsr2h
  4199   0018BE  5048               	movf	(??_gpio_pin_direction_intialize+1)^0,w,c
  4200   0018C0  12DF               	iorwf	indf2,f,c
  4201                           
  4202                           ;MCAL_Layer/GPIO/hal_gpio.c: 37:             break;
  4203   0018C2  EF83  F00C         	goto	l7411
  4204   0018C6                     l7409:
  4205   0018C6  5046               	movf	gpio_pin_direction_intialize@__pin_t^0,w,c
  4206   0018C8  6ED9               	movwf	fsr2l,c
  4207   0018CA  6ADA               	clrf	fsr2h,c
  4208   0018CC  BCDF               	btfsc	indf2,6,c
  4209   0018CE  EF6B  F00C         	goto	u6721
  4210   0018D2  EF6E  F00C         	goto	u6720
  4211   0018D6                     u6721:
  4212   0018D6  0E01               	movlw	1
  4213   0018D8  EF6F  F00C         	goto	u6730
  4214   0018DC                     u6720:
  4215   0018DC  0E00               	movlw	0
  4216   0018DE                     u6730:
  4217   0018DE  6E47               	movwf	??_gpio_pin_direction_intialize^0,c
  4218   0018E0  6A48               	clrf	(??_gpio_pin_direction_intialize+1)^0,c
  4219                           
  4220                           ; Switch on 2 bytes has been partitioned into a top level switch of size 1, and 1 sub-sw
      +                          itches
  4221                           ; Switch size 1, requested type "simple"
  4222                           ; Number of cases is 1, Range of values is 0 to 0
  4223                           ; switch strategies available:
  4224                           ; Name         Instructions Cycles
  4225                           ; simple_byte            4     3 (average)
  4226                           ;	Chosen strategy is simple_byte
  4227   0018E2  5048               	movf	(??_gpio_pin_direction_intialize+1)^0,w,c
  4228   0018E4  0A00               	xorlw	0	; case 0
  4229   0018E6  B4D8               	btfsc	status,2,c
  4230   0018E8  EF78  F00C         	goto	l8557
  4231   0018EC  EF0C  F00C         	goto	l7401
  4232   0018F0                     l8557:
  4233                           
  4234                           ; Switch size 1, requested type "simple"
  4235                           ; Number of cases is 2, Range of values is 0 to 1
  4236                           ; switch strategies available:
  4237                           ; Name         Instructions Cycles
  4238                           ; simple_byte            7     4 (average)
  4239                           ;	Chosen strategy is simple_byte
  4240   0018F0  5047               	movf	??_gpio_pin_direction_intialize^0,w,c
  4241   0018F2  0A00               	xorlw	0	; case 0
  4242   0018F4  B4D8               	btfsc	status,2,c
  4243   0018F6  EF10  F00C         	goto	l7403
  4244   0018FA  0A01               	xorlw	1	; case 1
  4245   0018FC  B4D8               	btfsc	status,2,c
  4246   0018FE  EF3B  F00C         	goto	l7405
  4247   001902  EF0C  F00C         	goto	l7401
  4248   001906                     l7411:
  4249                           
  4250                           ;MCAL_Layer/GPIO/hal_gpio.c: 44:     return ret;
  4251   001906  504C               	movf	gpio_pin_direction_intialize@ret^0,w,c
  4252   001908  0012               	return		;funcret
  4253   00190A                     __end_of_gpio_pin_direction_intialize:
  4254                           	callstack 0
  4255                           
  4256 ;; *************** function _InterruptManager *****************
  4257 ;; Defined at:
  4258 ;;		line 104 in file "MCAL_Layer/Interrupt/mcal_interrupt_manager.c"
  4259 ;; Parameters:    Size  Location     Type
  4260 ;;		None
  4261 ;; Auto vars:     Size  Location     Type
  4262 ;;		None
  4263 ;; Return value:  Size  Location     Type
  4264 ;;                  1    wreg      void 
  4265 ;; Registers used:
  4266 ;;		wreg, status,2, status,0, pcl, pclath, pclatu, tosl, cstack
  4267 ;; Tracked objects:
  4268 ;;		On entry : 0/0
  4269 ;;		On exit  : 0/0
  4270 ;;		Unchanged: 0/0
  4271 ;; Data sizes:     COMRAM   BANK0   BANK1   BANK2   BANK3   BANK4   BANK5   BANK6   BANK7   BANK8   BANK9  BANK10  BANK1
      +1  BANK12  BANK13  BANK14  BANK15
  4272 ;;      Params:         0       0       0       0       0       0       0       0       0       0       0       0       
      +0       0       0       0       0
  4273 ;;      Locals:         0       0       0       0       0       0       0       0       0       0       0       0       
      +0       0       0       0       0
  4274 ;;      Temps:          2       0       0       0       0       0       0       0       0       0       0       0       
      +0       0       0       0       0
  4275 ;;      Totals:         2       0       0       0       0       0       0       0       0       0       0       0       
      +0       0       0       0       0
  4276 ;;Total ram usage:        2 bytes
  4277 ;; Hardware stack levels used: 1
  4278 ;; Hardware stack levels required when called: 2
  4279 ;; This function calls:
  4280 ;;		_ADC_ISR
  4281 ;;		_CCP1_ISR
  4282 ;;		_CCP2_ISR
  4283 ;;		_EUSART_RX_ASY_ISR
  4284 ;;		_EUSART_TX_ASY_ISR
  4285 ;;		_I2C_BUS_COLLISION_ISR
  4286 ;;		_I2C_MODULE_TR_ISR
  4287 ;;		_INT0_ISR
  4288 ;;		_INT1_ISR
  4289 ;;		_INT2_ISR
  4290 ;;		_MSSP_Spi_ISR
  4291 ;;		_RB4_ISR
  4292 ;;		_RB5_ISR
  4293 ;;		_RB6_ISR
  4294 ;;		_RB7_ISR
  4295 ;;		_TMR0_ISR
  4296 ;;		_TMR1_ISR
  4297 ;;		_TMR2_ISR
  4298 ;;		_TMR3_ISR
  4299 ;; This function is called by:
  4300 ;;		Interrupt level 2
  4301 ;; This function uses a non-reentrant model
  4302 ;;
  4303                           
  4304                           	psect	intcode
  4305   000008                     __pintcode:
  4306                           	callstack 0
  4307   000008                     _InterruptManager:
  4308                           	callstack 22
  4309                           
  4310                           ;incstack = 0
  4311   000008  827C               	bsf	int$flags,1,c	;set compiler interrupt flag (level 2)
  4312   00000A  ED0F  F008         	call	int_func,f	;refresh shadow registers
  4313                           
  4314                           	psect	intcode_body
  4315   00101E                     __pintcode_body:
  4316                           	callstack 22
  4317   00101E                     int_func:
  4318                           	callstack 22
  4319   00101E  0006               	pop		; remove dummy address from shadow register refresh
  4320   001020  CFFA F044          	movff	pclath,??_InterruptManager
  4321   001024  CFFB F045          	movff	pclatu,??_InterruptManager+1
  4322   001028                     
  4323                           ;MCAL_Layer/Interrupt/mcal_interrupt_manager.c: 106:     if((INTCONbits.INT0IE == 1) && 
      +                          (INTCONbits.INT0IF == 1)){
  4324   001028  A8F2               	btfss	242,4,c	;volatile
  4325   00102A  EF19  F008         	goto	i2u545_41
  4326   00102E  EF1B  F008         	goto	i2u545_40
  4327   001032                     i2u545_41:
  4328   001032  EF24  F008         	goto	i2l1181
  4329   001036                     i2u545_40:
  4330   001036  A2F2               	btfss	242,1,c	;volatile
  4331   001038  EF20  F008         	goto	i2u546_41
  4332   00103C  EF22  F008         	goto	i2u546_40
  4333   001040                     i2u546_41:
  4334   001040  EF24  F008         	goto	i2l1181
  4335   001044                     i2u546_40:
  4336   001044                     
  4337                           ;MCAL_Layer/Interrupt/mcal_interrupt_manager.c: 107:         INT0_ISR();
  4338   001044  EC3E  F012         	call	_INT0_ISR	;wreg free
  4339   001048                     i2l1181:
  4340                           
  4341                           ;MCAL_Layer/Interrupt/mcal_interrupt_manager.c: 112:     if((INTCON3bits.INT1E == 1) && 
      +                          (INTCON3bits.INT1F == 1)){
  4342   001048  A6F0               	btfss	240,3,c	;volatile
  4343   00104A  EF29  F008         	goto	i2u547_41
  4344   00104E  EF2B  F008         	goto	i2u547_40
  4345   001052                     i2u547_41:
  4346   001052  EF34  F008         	goto	i2l1183
  4347   001056                     i2u547_40:
  4348   001056  A0F0               	btfss	240,0,c	;volatile
  4349   001058  EF30  F008         	goto	i2u548_41
  4350   00105C  EF32  F008         	goto	i2u548_40
  4351   001060                     i2u548_41:
  4352   001060  EF34  F008         	goto	i2l1183
  4353   001064                     i2u548_40:
  4354   001064                     
  4355                           ;MCAL_Layer/Interrupt/mcal_interrupt_manager.c: 113:         INT1_ISR();
  4356   001064  EC3C  F012         	call	_INT1_ISR	;wreg free
  4357   001068                     i2l1183:
  4358                           
  4359                           ;MCAL_Layer/Interrupt/mcal_interrupt_manager.c: 118:     if((INTCON3bits.INT2IE == 1) &&
      +                           (INTCON3bits.INT2IF == 1)){
  4360   001068  A8F0               	btfss	240,4,c	;volatile
  4361   00106A  EF39  F008         	goto	i2u549_41
  4362   00106E  EF3B  F008         	goto	i2u549_40
  4363   001072                     i2u549_41:
  4364   001072  EF44  F008         	goto	i2l1185
  4365   001076                     i2u549_40:
  4366   001076  A2F0               	btfss	240,1,c	;volatile
  4367   001078  EF40  F008         	goto	i2u550_41
  4368   00107C  EF42  F008         	goto	i2u550_40
  4369   001080                     i2u550_41:
  4370   001080  EF44  F008         	goto	i2l1185
  4371   001084                     i2u550_40:
  4372   001084                     
  4373                           ;MCAL_Layer/Interrupt/mcal_interrupt_manager.c: 119:         INT2_ISR();
  4374   001084  EC3A  F012         	call	_INT2_ISR	;wreg free
  4375   001088                     i2l1185:
  4376                           
  4377                           ;MCAL_Layer/Interrupt/mcal_interrupt_manager.c: 127:     if((INTCONbits.RBIE == 1) && (I
      +                          NTCONbits.RBIF == 1) &&
  4378   001088  A6F2               	btfss	242,3,c	;volatile
  4379   00108A  EF49  F008         	goto	i2u551_41
  4380   00108E  EF4B  F008         	goto	i2u551_40
  4381   001092                     i2u551_41:
  4382   001092  EF66  F008         	goto	i2l1187
  4383   001096                     i2u551_40:
  4384   001096  A0F2               	btfss	242,0,c	;volatile
  4385   001098  EF50  F008         	goto	i2u552_41
  4386   00109C  EF52  F008         	goto	i2u552_40
  4387   0010A0                     i2u552_41:
  4388   0010A0  EF66  F008         	goto	i2l1187
  4389   0010A4                     i2u552_40:
  4390   0010A4  A881               	btfss	129,4,c	;volatile
  4391   0010A6  EF57  F008         	goto	i2u553_41
  4392   0010AA  EF59  F008         	goto	i2u553_40
  4393   0010AE                     i2u553_41:
  4394   0010AE  EF66  F008         	goto	i2l1187
  4395   0010B2                     i2u553_40:
  4396   0010B2  047B               	decf	_RB4_Flag^0,w,c	;volatile
  4397   0010B4  A4D8               	btfss	status,2,c
  4398   0010B6  EF5F  F008         	goto	i2u554_41
  4399   0010BA  EF61  F008         	goto	i2u554_40
  4400   0010BE                     i2u554_41:
  4401   0010BE  EF66  F008         	goto	i2l1187
  4402   0010C2                     i2u554_40:
  4403   0010C2                     
  4404                           ;MCAL_Layer/Interrupt/mcal_interrupt_manager.c: 128:             (PORTBbits.RB4 == LOGIC
      +                          _HIGH) && (RB4_Flag == 1)){;MCAL_Layer/Interrupt/mcal_interrupt_manager.c: 129:         
      +                           RB4_Flag = 0;
  4405   0010C2  0E00               	movlw	0
  4406   0010C4  6E7B               	movwf	_RB4_Flag^0,c	;volatile
  4407   0010C6                     
  4408                           ;MCAL_Layer/Interrupt/mcal_interrupt_manager.c: 130:          RB4_ISR(0);
  4409   0010C6  0E00               	movlw	0
  4410   0010C8  EC0E  F012         	call	_RB4_ISR
  4411   0010CC                     i2l1187:
  4412                           
  4413                           ;MCAL_Layer/Interrupt/mcal_interrupt_manager.c: 135:     if((INTCONbits.RBIE == 1) && (I
      +                          NTCONbits.RBIF == 1) &&
  4414   0010CC  A6F2               	btfss	242,3,c	;volatile
  4415   0010CE  EF6B  F008         	goto	i2u555_41
  4416   0010D2  EF6D  F008         	goto	i2u555_40
  4417   0010D6                     i2u555_41:
  4418   0010D6  EF88  F008         	goto	i2l1189
  4419   0010DA                     i2u555_40:
  4420   0010DA  A0F2               	btfss	242,0,c	;volatile
  4421   0010DC  EF72  F008         	goto	i2u556_41
  4422   0010E0  EF74  F008         	goto	i2u556_40
  4423   0010E4                     i2u556_41:
  4424   0010E4  EF88  F008         	goto	i2l1189
  4425   0010E8                     i2u556_40:
  4426   0010E8  B881               	btfsc	129,4,c	;volatile
  4427   0010EA  EF79  F008         	goto	i2u557_41
  4428   0010EE  EF7B  F008         	goto	i2u557_40
  4429   0010F2                     i2u557_41:
  4430   0010F2  EF88  F008         	goto	i2l1189
  4431   0010F6                     i2u557_40:
  4432   0010F6  507B               	movf	_RB4_Flag^0,w,c	;volatile
  4433   0010F8  A4D8               	btfss	status,2,c
  4434   0010FA  EF81  F008         	goto	i2u558_41
  4435   0010FE  EF83  F008         	goto	i2u558_40
  4436   001102                     i2u558_41:
  4437   001102  EF88  F008         	goto	i2l1189
  4438   001106                     i2u558_40:
  4439   001106                     
  4440                           ;MCAL_Layer/Interrupt/mcal_interrupt_manager.c: 136:             (PORTBbits.RB4 == LOGIC
      +                          _LOW) && (RB4_Flag == 0)){;MCAL_Layer/Interrupt/mcal_interrupt_manager.c: 137:          
      +                          RB4_Flag = 1;
  4441   001106  0E01               	movlw	1
  4442   001108  6E7B               	movwf	_RB4_Flag^0,c	;volatile
  4443   00110A                     
  4444                           ;MCAL_Layer/Interrupt/mcal_interrupt_manager.c: 138:          RB4_ISR(1);
  4445   00110A  0E01               	movlw	1
  4446   00110C  EC0E  F012         	call	_RB4_ISR
  4447   001110                     i2l1189:
  4448                           
  4449                           ;MCAL_Layer/Interrupt/mcal_interrupt_manager.c: 143:     if((INTCONbits.RBIE == 1) && (I
      +                          NTCONbits.RBIF == 1) &&
  4450   001110  A6F2               	btfss	242,3,c	;volatile
  4451   001112  EF8D  F008         	goto	i2u559_41
  4452   001116  EF8F  F008         	goto	i2u559_40
  4453   00111A                     i2u559_41:
  4454   00111A  EFAA  F008         	goto	i2l1191
  4455   00111E                     i2u559_40:
  4456   00111E  A0F2               	btfss	242,0,c	;volatile
  4457   001120  EF94  F008         	goto	i2u560_41
  4458   001124  EF96  F008         	goto	i2u560_40
  4459   001128                     i2u560_41:
  4460   001128  EFAA  F008         	goto	i2l1191
  4461   00112C                     i2u560_40:
  4462   00112C  AA81               	btfss	129,5,c	;volatile
  4463   00112E  EF9B  F008         	goto	i2u561_41
  4464   001132  EF9D  F008         	goto	i2u561_40
  4465   001136                     i2u561_41:
  4466   001136  EFAA  F008         	goto	i2l1191
  4467   00113A                     i2u561_40:
  4468   00113A  047A               	decf	_RB5_Flag^0,w,c	;volatile
  4469   00113C  A4D8               	btfss	status,2,c
  4470   00113E  EFA3  F008         	goto	i2u562_41
  4471   001142  EFA5  F008         	goto	i2u562_40
  4472   001146                     i2u562_41:
  4473   001146  EFAA  F008         	goto	i2l1191
  4474   00114A                     i2u562_40:
  4475   00114A                     
  4476                           ;MCAL_Layer/Interrupt/mcal_interrupt_manager.c: 144:             (PORTBbits.RB5 == LOGIC
      +                          _HIGH) && (RB5_Flag == 1)){;MCAL_Layer/Interrupt/mcal_interrupt_manager.c: 145:         
      +                           RB5_Flag = 0;
  4477   00114A  0E00               	movlw	0
  4478   00114C  6E7A               	movwf	_RB5_Flag^0,c	;volatile
  4479   00114E                     
  4480                           ;MCAL_Layer/Interrupt/mcal_interrupt_manager.c: 146:          RB5_ISR(0);
  4481   00114E  0E00               	movlw	0
  4482   001150  EC01  F012         	call	_RB5_ISR
  4483   001154                     i2l1191:
  4484                           
  4485                           ;MCAL_Layer/Interrupt/mcal_interrupt_manager.c: 151:      if((INTCONbits.RBIE == 1) && (
      +                          INTCONbits.RBIF == 1) &&
  4486   001154  A6F2               	btfss	242,3,c	;volatile
  4487   001156  EFAF  F008         	goto	i2u563_41
  4488   00115A  EFB1  F008         	goto	i2u563_40
  4489   00115E                     i2u563_41:
  4490   00115E  EFCC  F008         	goto	i2l1193
  4491   001162                     i2u563_40:
  4492   001162  A0F2               	btfss	242,0,c	;volatile
  4493   001164  EFB6  F008         	goto	i2u564_41
  4494   001168  EFB8  F008         	goto	i2u564_40
  4495   00116C                     i2u564_41:
  4496   00116C  EFCC  F008         	goto	i2l1193
  4497   001170                     i2u564_40:
  4498   001170  BA81               	btfsc	129,5,c	;volatile
  4499   001172  EFBD  F008         	goto	i2u565_41
  4500   001176  EFBF  F008         	goto	i2u565_40
  4501   00117A                     i2u565_41:
  4502   00117A  EFCC  F008         	goto	i2l1193
  4503   00117E                     i2u565_40:
  4504   00117E  507A               	movf	_RB5_Flag^0,w,c	;volatile
  4505   001180  A4D8               	btfss	status,2,c
  4506   001182  EFC5  F008         	goto	i2u566_41
  4507   001186  EFC7  F008         	goto	i2u566_40
  4508   00118A                     i2u566_41:
  4509   00118A  EFCC  F008         	goto	i2l1193
  4510   00118E                     i2u566_40:
  4511   00118E                     
  4512                           ;MCAL_Layer/Interrupt/mcal_interrupt_manager.c: 152:             (PORTBbits.RB5 == LOGIC
      +                          _LOW) && (RB5_Flag == 0)){;MCAL_Layer/Interrupt/mcal_interrupt_manager.c: 153:          
      +                          RB5_Flag = 1;
  4513   00118E  0E01               	movlw	1
  4514   001190  6E7A               	movwf	_RB5_Flag^0,c	;volatile
  4515   001192                     
  4516                           ;MCAL_Layer/Interrupt/mcal_interrupt_manager.c: 154:          RB5_ISR(1);
  4517   001192  0E01               	movlw	1
  4518   001194  EC01  F012         	call	_RB5_ISR
  4519   001198                     i2l1193:
  4520                           
  4521                           ;MCAL_Layer/Interrupt/mcal_interrupt_manager.c: 159:     if((INTCONbits.RBIE == 1) && (I
      +                          NTCONbits.RBIF == 1) &&
  4522   001198  A6F2               	btfss	242,3,c	;volatile
  4523   00119A  EFD1  F008         	goto	i2u567_41
  4524   00119E  EFD3  F008         	goto	i2u567_40
  4525   0011A2                     i2u567_41:
  4526   0011A2  EFEE  F008         	goto	i2l1195
  4527   0011A6                     i2u567_40:
  4528   0011A6  A0F2               	btfss	242,0,c	;volatile
  4529   0011A8  EFD8  F008         	goto	i2u568_41
  4530   0011AC  EFDA  F008         	goto	i2u568_40
  4531   0011B0                     i2u568_41:
  4532   0011B0  EFEE  F008         	goto	i2l1195
  4533   0011B4                     i2u568_40:
  4534   0011B4  AC81               	btfss	129,6,c	;volatile
  4535   0011B6  EFDF  F008         	goto	i2u569_41
  4536   0011BA  EFE1  F008         	goto	i2u569_40
  4537   0011BE                     i2u569_41:
  4538   0011BE  EFEE  F008         	goto	i2l1195
  4539   0011C2                     i2u569_40:
  4540   0011C2  0479               	decf	_RB6_Flag^0,w,c	;volatile
  4541   0011C4  A4D8               	btfss	status,2,c
  4542   0011C6  EFE7  F008         	goto	i2u570_41
  4543   0011CA  EFE9  F008         	goto	i2u570_40
  4544   0011CE                     i2u570_41:
  4545   0011CE  EFEE  F008         	goto	i2l1195
  4546   0011D2                     i2u570_40:
  4547   0011D2                     
  4548                           ;MCAL_Layer/Interrupt/mcal_interrupt_manager.c: 160:             (PORTBbits.RB6 == LOGIC
      +                          _HIGH) && (RB6_Flag == 1)){;MCAL_Layer/Interrupt/mcal_interrupt_manager.c: 161:         
      +                           RB6_Flag = 0;
  4549   0011D2  0E00               	movlw	0
  4550   0011D4  6E79               	movwf	_RB6_Flag^0,c	;volatile
  4551   0011D6                     
  4552                           ;MCAL_Layer/Interrupt/mcal_interrupt_manager.c: 162:          RB6_ISR(0);
  4553   0011D6  0E00               	movlw	0
  4554   0011D8  ECF4  F011         	call	_RB6_ISR
  4555   0011DC                     i2l1195:
  4556                           
  4557                           ;MCAL_Layer/Interrupt/mcal_interrupt_manager.c: 167:      if((INTCONbits.RBIE == 1) && (
      +                          INTCONbits.RBIF == 1) &&
  4558   0011DC  A6F2               	btfss	242,3,c	;volatile
  4559   0011DE  EFF3  F008         	goto	i2u571_41
  4560   0011E2  EFF5  F008         	goto	i2u571_40
  4561   0011E6                     i2u571_41:
  4562   0011E6  EF10  F009         	goto	i2l1197
  4563   0011EA                     i2u571_40:
  4564   0011EA  A0F2               	btfss	242,0,c	;volatile
  4565   0011EC  EFFA  F008         	goto	i2u572_41
  4566   0011F0  EFFC  F008         	goto	i2u572_40
  4567   0011F4                     i2u572_41:
  4568   0011F4  EF10  F009         	goto	i2l1197
  4569   0011F8                     i2u572_40:
  4570   0011F8  BC81               	btfsc	129,6,c	;volatile
  4571   0011FA  EF01  F009         	goto	i2u573_41
  4572   0011FE  EF03  F009         	goto	i2u573_40
  4573   001202                     i2u573_41:
  4574   001202  EF10  F009         	goto	i2l1197
  4575   001206                     i2u573_40:
  4576   001206  5079               	movf	_RB6_Flag^0,w,c	;volatile
  4577   001208  A4D8               	btfss	status,2,c
  4578   00120A  EF09  F009         	goto	i2u574_41
  4579   00120E  EF0B  F009         	goto	i2u574_40
  4580   001212                     i2u574_41:
  4581   001212  EF10  F009         	goto	i2l1197
  4582   001216                     i2u574_40:
  4583   001216                     
  4584                           ;MCAL_Layer/Interrupt/mcal_interrupt_manager.c: 168:             (PORTBbits.RB6 ==LOGIC_
      +                          LOW) && (RB6_Flag == 0)){;MCAL_Layer/Interrupt/mcal_interrupt_manager.c: 169:          R
      +                          B6_Flag = 1;
  4585   001216  0E01               	movlw	1
  4586   001218  6E79               	movwf	_RB6_Flag^0,c	;volatile
  4587   00121A                     
  4588                           ;MCAL_Layer/Interrupt/mcal_interrupt_manager.c: 170:          RB6_ISR(1);
  4589   00121A  0E01               	movlw	1
  4590   00121C  ECF4  F011         	call	_RB6_ISR
  4591   001220                     i2l1197:
  4592                           
  4593                           ;MCAL_Layer/Interrupt/mcal_interrupt_manager.c: 175:     if((INTCONbits.RBIE == 1) && (I
      +                          NTCONbits.RBIF == 1) &&
  4594   001220  A6F2               	btfss	242,3,c	;volatile
  4595   001222  EF15  F009         	goto	i2u575_41
  4596   001226  EF17  F009         	goto	i2u575_40
  4597   00122A                     i2u575_41:
  4598   00122A  EF32  F009         	goto	i2l1199
  4599   00122E                     i2u575_40:
  4600   00122E  A0F2               	btfss	242,0,c	;volatile
  4601   001230  EF1C  F009         	goto	i2u576_41
  4602   001234  EF1E  F009         	goto	i2u576_40
  4603   001238                     i2u576_41:
  4604   001238  EF32  F009         	goto	i2l1199
  4605   00123C                     i2u576_40:
  4606   00123C  AE81               	btfss	129,7,c	;volatile
  4607   00123E  EF23  F009         	goto	i2u577_41
  4608   001242  EF25  F009         	goto	i2u577_40
  4609   001246                     i2u577_41:
  4610   001246  EF32  F009         	goto	i2l1199
  4611   00124A                     i2u577_40:
  4612   00124A  0478               	decf	_RB7_Flag^0,w,c	;volatile
  4613   00124C  A4D8               	btfss	status,2,c
  4614   00124E  EF2B  F009         	goto	i2u578_41
  4615   001252  EF2D  F009         	goto	i2u578_40
  4616   001256                     i2u578_41:
  4617   001256  EF32  F009         	goto	i2l1199
  4618   00125A                     i2u578_40:
  4619   00125A                     
  4620                           ;MCAL_Layer/Interrupt/mcal_interrupt_manager.c: 176:             (PORTBbits.RB7 == LOGIC
      +                          _HIGH) && (RB7_Flag == 1)){;MCAL_Layer/Interrupt/mcal_interrupt_manager.c: 177:         
      +                           RB7_Flag = 0;
  4621   00125A  0E00               	movlw	0
  4622   00125C  6E78               	movwf	_RB7_Flag^0,c	;volatile
  4623   00125E                     
  4624                           ;MCAL_Layer/Interrupt/mcal_interrupt_manager.c: 178:          RB7_ISR(0);
  4625   00125E  0E00               	movlw	0
  4626   001260  ECE7  F011         	call	_RB7_ISR
  4627   001264                     i2l1199:
  4628                           
  4629                           ;MCAL_Layer/Interrupt/mcal_interrupt_manager.c: 183:      if((INTCONbits.RBIE == 1) && (
      +                          INTCONbits.RBIF == 1) &&
  4630   001264  A6F2               	btfss	242,3,c	;volatile
  4631   001266  EF37  F009         	goto	i2u579_41
  4632   00126A  EF39  F009         	goto	i2u579_40
  4633   00126E                     i2u579_41:
  4634   00126E  EF54  F009         	goto	i2l1201
  4635   001272                     i2u579_40:
  4636   001272  A0F2               	btfss	242,0,c	;volatile
  4637   001274  EF3E  F009         	goto	i2u580_41
  4638   001278  EF40  F009         	goto	i2u580_40
  4639   00127C                     i2u580_41:
  4640   00127C  EF54  F009         	goto	i2l1201
  4641   001280                     i2u580_40:
  4642   001280  BE81               	btfsc	129,7,c	;volatile
  4643   001282  EF45  F009         	goto	i2u581_41
  4644   001286  EF47  F009         	goto	i2u581_40
  4645   00128A                     i2u581_41:
  4646   00128A  EF54  F009         	goto	i2l1201
  4647   00128E                     i2u581_40:
  4648   00128E  5078               	movf	_RB7_Flag^0,w,c	;volatile
  4649   001290  A4D8               	btfss	status,2,c
  4650   001292  EF4D  F009         	goto	i2u582_41
  4651   001296  EF4F  F009         	goto	i2u582_40
  4652   00129A                     i2u582_41:
  4653   00129A  EF54  F009         	goto	i2l1201
  4654   00129E                     i2u582_40:
  4655   00129E                     
  4656                           ;MCAL_Layer/Interrupt/mcal_interrupt_manager.c: 184:             (PORTBbits.RB7== LOGIC_
      +                          LOW) && (RB7_Flag == 0)){;MCAL_Layer/Interrupt/mcal_interrupt_manager.c: 185:          R
      +                          B7_Flag = 1;
  4657   00129E  0E01               	movlw	1
  4658   0012A0  6E78               	movwf	_RB7_Flag^0,c	;volatile
  4659   0012A2                     
  4660                           ;MCAL_Layer/Interrupt/mcal_interrupt_manager.c: 186:          RB7_ISR(1);
  4661   0012A2  0E01               	movlw	1
  4662   0012A4  ECE7  F011         	call	_RB7_ISR
  4663   0012A8                     i2l1201:
  4664                           
  4665                           ;MCAL_Layer/Interrupt/mcal_interrupt_manager.c: 194:     if((PIE1bits.ADIE == 1) && (PIR
      +                          1bits.ADIF == 1)){
  4666   0012A8  AC9D               	btfss	157,6,c	;volatile
  4667   0012AA  EF59  F009         	goto	i2u583_41
  4668   0012AE  EF5B  F009         	goto	i2u583_40
  4669   0012B2                     i2u583_41:
  4670   0012B2  EF64  F009         	goto	i2l1203
  4671   0012B6                     i2u583_40:
  4672   0012B6  AC9E               	btfss	158,6,c	;volatile
  4673   0012B8  EF60  F009         	goto	i2u584_41
  4674   0012BC  EF62  F009         	goto	i2u584_40
  4675   0012C0                     i2u584_41:
  4676   0012C0  EF64  F009         	goto	i2l1203
  4677   0012C4                     i2u584_40:
  4678   0012C4                     
  4679                           ;MCAL_Layer/Interrupt/mcal_interrupt_manager.c: 195:        ADC_ISR();
  4680   0012C4  EC4A  F012         	call	_ADC_ISR	;wreg free
  4681   0012C8                     i2l1203:
  4682                           
  4683                           ;MCAL_Layer/Interrupt/mcal_interrupt_manager.c: 201:     if((INTCONbits.TMR0IE == 1) && 
      +                          (INTCONbits.TMR0IF == 1)){
  4684   0012C8  AAF2               	btfss	242,5,c	;volatile
  4685   0012CA  EF69  F009         	goto	i2u585_41
  4686   0012CE  EF6B  F009         	goto	i2u585_40
  4687   0012D2                     i2u585_41:
  4688   0012D2  EF74  F009         	goto	i2l1205
  4689   0012D6                     i2u585_40:
  4690   0012D6  A4F2               	btfss	242,2,c	;volatile
  4691   0012D8  EF70  F009         	goto	i2u586_41
  4692   0012DC  EF72  F009         	goto	i2u586_40
  4693   0012E0                     i2u586_41:
  4694   0012E0  EF74  F009         	goto	i2l1205
  4695   0012E4                     i2u586_40:
  4696   0012E4                     
  4697                           ;MCAL_Layer/Interrupt/mcal_interrupt_manager.c: 202:         TMR0_ISR();
  4698   0012E4  EC21  F012         	call	_TMR0_ISR	;wreg free
  4699   0012E8                     i2l1205:
  4700                           
  4701                           ;MCAL_Layer/Interrupt/mcal_interrupt_manager.c: 207:  if((PIE1bits.TMR1IE == 1) && (PIR1
      +                          bits.TMR1IF == 1)){
  4702   0012E8  A09D               	btfss	157,0,c	;volatile
  4703   0012EA  EF79  F009         	goto	i2u587_41
  4704   0012EE  EF7B  F009         	goto	i2u587_40
  4705   0012F2                     i2u587_41:
  4706   0012F2  EF84  F009         	goto	i2l1207
  4707   0012F6                     i2u587_40:
  4708   0012F6  A09E               	btfss	158,0,c	;volatile
  4709   0012F8  EF80  F009         	goto	i2u588_41
  4710   0012FC  EF82  F009         	goto	i2u588_40
  4711   001300                     i2u588_41:
  4712   001300  EF84  F009         	goto	i2l1207
  4713   001304                     i2u588_40:
  4714   001304                     
  4715                           ;MCAL_Layer/Interrupt/mcal_interrupt_manager.c: 208:         TMR1_ISR();
  4716   001304  EC5B  F011         	call	_TMR1_ISR	;wreg free
  4717   001308                     i2l1207:
  4718                           
  4719                           ;MCAL_Layer/Interrupt/mcal_interrupt_manager.c: 213: if((PIE1bits.TMR2IE == 1) && (PIR1b
      +                          its.TMR2IF == 1)){
  4720   001308  A29D               	btfss	157,1,c	;volatile
  4721   00130A  EF89  F009         	goto	i2u589_41
  4722   00130E  EF8B  F009         	goto	i2u589_40
  4723   001312                     i2u589_41:
  4724   001312  EF94  F009         	goto	i2l1209
  4725   001316                     i2u589_40:
  4726   001316  A29E               	btfss	158,1,c	;volatile
  4727   001318  EF90  F009         	goto	i2u590_41
  4728   00131C  EF92  F009         	goto	i2u590_40
  4729   001320                     i2u590_41:
  4730   001320  EF94  F009         	goto	i2l1209
  4731   001324                     i2u590_40:
  4732   001324                     
  4733                           ;MCAL_Layer/Interrupt/mcal_interrupt_manager.c: 214:         TMR2_ISR();
  4734   001324  EC32  F012         	call	_TMR2_ISR	;wreg free
  4735   001328                     i2l1209:
  4736                           
  4737                           ;MCAL_Layer/Interrupt/mcal_interrupt_manager.c: 219:     if((PIE2bits.TMR3IE == 1) && (P
      +                          IR2bits.TMR3IF == 1)){
  4738   001328  A2A0               	btfss	160,1,c	;volatile
  4739   00132A  EF99  F009         	goto	i2u591_41
  4740   00132E  EF9B  F009         	goto	i2u591_40
  4741   001332                     i2u591_41:
  4742   001332  EFA4  F009         	goto	i2l1211
  4743   001336                     i2u591_40:
  4744   001336  A2A1               	btfss	161,1,c	;volatile
  4745   001338  EFA0  F009         	goto	i2u592_41
  4746   00133C  EFA2  F009         	goto	i2u592_40
  4747   001340                     i2u592_41:
  4748   001340  EFA4  F009         	goto	i2l1211
  4749   001344                     i2u592_40:
  4750   001344                     
  4751                           ;MCAL_Layer/Interrupt/mcal_interrupt_manager.c: 220:         TMR3_ISR();
  4752   001344  EC1B  F012         	call	_TMR3_ISR	;wreg free
  4753   001348                     i2l1211:
  4754                           
  4755                           ;MCAL_Layer/Interrupt/mcal_interrupt_manager.c: 225:      if((PIE1bits.CCP1IE == 1) && (
      +                          PIR1bits.CCP1IF == 1)){
  4756   001348  A49D               	btfss	157,2,c	;volatile
  4757   00134A  EFA9  F009         	goto	i2u593_41
  4758   00134E  EFAB  F009         	goto	i2u593_40
  4759   001352                     i2u593_41:
  4760   001352  EFB4  F009         	goto	i2l1213
  4761   001356                     i2u593_40:
  4762   001356  A49E               	btfss	158,2,c	;volatile
  4763   001358  EFB0  F009         	goto	i2u594_41
  4764   00135C  EFB2  F009         	goto	i2u594_40
  4765   001360                     i2u594_41:
  4766   001360  EFB4  F009         	goto	i2l1213
  4767   001364                     i2u594_40:
  4768   001364                     
  4769                           ;MCAL_Layer/Interrupt/mcal_interrupt_manager.c: 226:         CCP1_ISR();
  4770   001364  EC48  F012         	call	_CCP1_ISR	;wreg free
  4771   001368                     i2l1213:
  4772                           
  4773                           ;MCAL_Layer/Interrupt/mcal_interrupt_manager.c: 231:      if((PIE2bits.CCP2IE == 1) && (
      +                          PIR2bits.CCP2IF == 1)){
  4774   001368  A0A0               	btfss	160,0,c	;volatile
  4775   00136A  EFB9  F009         	goto	i2u595_41
  4776   00136E  EFBB  F009         	goto	i2u595_40
  4777   001372                     i2u595_41:
  4778   001372  EFC4  F009         	goto	i2l1215
  4779   001376                     i2u595_40:
  4780   001376  A0A1               	btfss	161,0,c	;volatile
  4781   001378  EFC0  F009         	goto	i2u596_41
  4782   00137C  EFC2  F009         	goto	i2u596_40
  4783   001380                     i2u596_41:
  4784   001380  EFC4  F009         	goto	i2l1215
  4785   001384                     i2u596_40:
  4786   001384                     
  4787                           ;MCAL_Layer/Interrupt/mcal_interrupt_manager.c: 232:         CCP2_ISR();
  4788   001384  EC46  F012         	call	_CCP2_ISR	;wreg free
  4789   001388                     i2l1215:
  4790                           
  4791                           ;MCAL_Layer/Interrupt/mcal_interrupt_manager.c: 237:      if((PIE1bits.TXIE == 1) && (PI
      +                          R1bits.TXIF == 1)){
  4792   001388  A89D               	btfss	157,4,c	;volatile
  4793   00138A  EFC9  F009         	goto	i2u597_41
  4794   00138E  EFCB  F009         	goto	i2u597_40
  4795   001392                     i2u597_41:
  4796   001392  EFD4  F009         	goto	i2l1217
  4797   001396                     i2u597_40:
  4798   001396  A89E               	btfss	158,4,c	;volatile
  4799   001398  EFD0  F009         	goto	i2u598_41
  4800   00139C  EFD2  F009         	goto	i2u598_40
  4801   0013A0                     i2u598_41:
  4802   0013A0  EFD4  F009         	goto	i2l1217
  4803   0013A4                     i2u598_40:
  4804   0013A4                     
  4805                           ;MCAL_Layer/Interrupt/mcal_interrupt_manager.c: 238:         EUSART_TX_ASY_ISR();
  4806   0013A4  EC44  F012         	call	_EUSART_TX_ASY_ISR	;wreg free
  4807   0013A8                     i2l1217:
  4808                           
  4809                           ;MCAL_Layer/Interrupt/mcal_interrupt_manager.c: 243:          if((PIE1bits.RCIE == 1) &&
      +                           (PIR1bits.RCIF == 1)){
  4810   0013A8  AA9D               	btfss	157,5,c	;volatile
  4811   0013AA  EFD9  F009         	goto	i2u599_41
  4812   0013AE  EFDB  F009         	goto	i2u599_40
  4813   0013B2                     i2u599_41:
  4814   0013B2  EFE4  F009         	goto	i2l1219
  4815   0013B6                     i2u599_40:
  4816   0013B6  AA9E               	btfss	158,5,c	;volatile
  4817   0013B8  EFE0  F009         	goto	i2u600_41
  4818   0013BC  EFE2  F009         	goto	i2u600_40
  4819   0013C0                     i2u600_41:
  4820   0013C0  EFE4  F009         	goto	i2l1219
  4821   0013C4                     i2u600_40:
  4822   0013C4                     
  4823                           ;MCAL_Layer/Interrupt/mcal_interrupt_manager.c: 244:         EUSART_RX_ASY_ISR();
  4824   0013C4  EC4D  F012         	call	_EUSART_RX_ASY_ISR	;wreg free
  4825   0013C8                     i2l1219:
  4826                           
  4827                           ;MCAL_Layer/Interrupt/mcal_interrupt_manager.c: 249:      if((PIE1bits.SSPIE == 1) && (P
      +                          IR1bits.SSPIF == 1)){
  4828   0013C8  A69D               	btfss	157,3,c	;volatile
  4829   0013CA  EFE9  F009         	goto	i2u601_41
  4830   0013CE  EFEB  F009         	goto	i2u601_40
  4831   0013D2                     i2u601_41:
  4832   0013D2  EFF4  F009         	goto	i2l1221
  4833   0013D6                     i2u601_40:
  4834   0013D6  A69E               	btfss	158,3,c	;volatile
  4835   0013D8  EFF0  F009         	goto	i2u602_41
  4836   0013DC  EFF2  F009         	goto	i2u602_40
  4837   0013E0                     i2u602_41:
  4838   0013E0  EFF4  F009         	goto	i2l1221
  4839   0013E4                     i2u602_40:
  4840   0013E4                     
  4841                           ;MCAL_Layer/Interrupt/mcal_interrupt_manager.c: 250:         I2C_MODULE_TR_ISR();
  4842   0013E4  EC40  F012         	call	_I2C_MODULE_TR_ISR	;wreg free
  4843   0013E8                     i2l1221:
  4844                           
  4845                           ;MCAL_Layer/Interrupt/mcal_interrupt_manager.c: 255:          if((PIE2bits.BCLIE == 1) &
      +                          & (PIR2bits.BCLIF == 1)){
  4846   0013E8  A6A0               	btfss	160,3,c	;volatile
  4847   0013EA  EFF9  F009         	goto	i2u603_41
  4848   0013EE  EFFB  F009         	goto	i2u603_40
  4849   0013F2                     i2u603_41:
  4850   0013F2  EF04  F00A         	goto	i2l1223
  4851   0013F6                     i2u603_40:
  4852   0013F6  A6A1               	btfss	161,3,c	;volatile
  4853   0013F8  EF00  F00A         	goto	i2u604_41
  4854   0013FC  EF02  F00A         	goto	i2u604_40
  4855   001400                     i2u604_41:
  4856   001400  EF04  F00A         	goto	i2l1223
  4857   001404                     i2u604_40:
  4858   001404                     
  4859                           ;MCAL_Layer/Interrupt/mcal_interrupt_manager.c: 256:         I2C_BUS_COLLISION_ISR();
  4860   001404  EC42  F012         	call	_I2C_BUS_COLLISION_ISR	;wreg free
  4861   001408                     i2l1223:
  4862                           
  4863                           ;MCAL_Layer/Interrupt/mcal_interrupt_manager.c: 261:      if((PIE1bits.SSPIE == 1) && (P
      +                          IR1bits.SSPIF == 1)){
  4864   001408  A69D               	btfss	157,3,c	;volatile
  4865   00140A  EF09  F00A         	goto	i2u605_41
  4866   00140E  EF0B  F00A         	goto	i2u605_40
  4867   001412                     i2u605_41:
  4868   001412  EF14  F00A         	goto	i2l1226
  4869   001416                     i2u605_40:
  4870   001416  A69E               	btfss	158,3,c	;volatile
  4871   001418  EF10  F00A         	goto	i2u606_41
  4872   00141C  EF12  F00A         	goto	i2u606_40
  4873   001420                     i2u606_41:
  4874   001420  EF14  F00A         	goto	i2l1226
  4875   001424                     i2u606_40:
  4876   001424                     
  4877                           ;MCAL_Layer/Interrupt/mcal_interrupt_manager.c: 262:         MSSP_Spi_ISR();
  4878   001424  EC38  F012         	call	_MSSP_Spi_ISR	;wreg free
  4879   001428                     i2l1226:
  4880   001428  C045  FFFB         	movff	??_InterruptManager+1,pclatu
  4881   00142C  C044  FFFA         	movff	??_InterruptManager,pclath
  4882   001430  927C               	bcf	int$flags,1,c	;clear compiler interrupt flag (level 2)
  4883   001432  0011               	retfie		f
  4884   001434                     __end_of_InterruptManager:
  4885                           	callstack 0
  4886                           
  4887 ;; *************** function _TMR3_ISR *****************
  4888 ;; Defined at:
  4889 ;;		line 91 in file "MCAL_Layer/TIMER3/hal_timer3.c"
  4890 ;; Parameters:    Size  Location     Type
  4891 ;;		None
  4892 ;; Auto vars:     Size  Location     Type
  4893 ;;		None
  4894 ;; Return value:  Size  Location     Type
  4895 ;;                  1    wreg      void 
  4896 ;; Registers used:
  4897 ;;		wreg, status,2
  4898 ;; Tracked objects:
  4899 ;;		On entry : 0/0
  4900 ;;		On exit  : 0/0
  4901 ;;		Unchanged: 0/0
  4902 ;; Data sizes:     COMRAM   BANK0   BANK1   BANK2   BANK3   BANK4   BANK5   BANK6   BANK7   BANK8   BANK9  BANK10  BANK1
      +1  BANK12  BANK13  BANK14  BANK15
  4903 ;;      Params:         0       0       0       0       0       0       0       0       0       0       0       0       
      +0       0       0       0       0
  4904 ;;      Locals:         0       0       0       0       0       0       0       0       0       0       0       0       
      +0       0       0       0       0
  4905 ;;      Temps:          0       0       0       0       0       0       0       0       0       0       0       0       
      +0       0       0       0       0
  4906 ;;      Totals:         0       0       0       0       0       0       0       0       0       0       0       0       
      +0       0       0       0       0
  4907 ;;Total ram usage:        0 bytes
  4908 ;; Hardware stack levels used: 1
  4909 ;; This function calls:
  4910 ;;		Nothing
  4911 ;; This function is called by:
  4912 ;;		_InterruptManager
  4913 ;; This function uses a non-reentrant model
  4914 ;;
  4915                           
  4916                           	psect	text29
  4917   002436                     __ptext29:
  4918                           	callstack 0
  4919   002436                     _TMR3_ISR:
  4920                           	callstack 23
  4921   002436                     
  4922                           ;MCAL_Layer/TIMER3/hal_timer3.c: 92:  (PIR2bits.TMR3IF = 0 );
  4923   002436  92A1               	bcf	161,1,c	;volatile
  4924   002438                     
  4925                           ;MCAL_Layer/TIMER3/hal_timer3.c: 93:   TMR3H = (preload_vall) >> 8;
  4926   002438  5002               	movf	(_preload_vall+1)^0,w,c	;volatile
  4927   00243A  6EB3               	movwf	179,c	;volatile
  4928   00243C                     
  4929                           ;MCAL_Layer/TIMER3/hal_timer3.c: 94:     TMR3L = (uint8)(preload_vall);
  4930   00243C  C001  FFB2         	movff	_preload_vall,4018	;volatile
  4931   002440  0012               	return		;funcret
  4932   002442                     __end_of_TMR3_ISR:
  4933                           	callstack 0
  4934                           
  4935 ;; *************** function _TMR2_ISR *****************
  4936 ;; Defined at:
  4937 ;;		line 74 in file "MCAL_Layer/TIMER2/hal_timer2.c"
  4938 ;; Parameters:    Size  Location     Type
  4939 ;;		None
  4940 ;; Auto vars:     Size  Location     Type
  4941 ;;		None
  4942 ;; Return value:  Size  Location     Type
  4943 ;;                  1    wreg      void 
  4944 ;; Registers used:
  4945 ;;		None
  4946 ;; Tracked objects:
  4947 ;;		On entry : 0/0
  4948 ;;		On exit  : 0/0
  4949 ;;		Unchanged: 0/0
  4950 ;; Data sizes:     COMRAM   BANK0   BANK1   BANK2   BANK3   BANK4   BANK5   BANK6   BANK7   BANK8   BANK9  BANK10  BANK1
      +1  BANK12  BANK13  BANK14  BANK15
  4951 ;;      Params:         0       0       0       0       0       0       0       0       0       0       0       0       
      +0       0       0       0       0
  4952 ;;      Locals:         0       0       0       0       0       0       0       0       0       0       0       0       
      +0       0       0       0       0
  4953 ;;      Temps:          0       0       0       0       0       0       0       0       0       0       0       0       
      +0       0       0       0       0
  4954 ;;      Totals:         0       0       0       0       0       0       0       0       0       0       0       0       
      +0       0       0       0       0
  4955 ;;Total ram usage:        0 bytes
  4956 ;; Hardware stack levels used: 1
  4957 ;; This function calls:
  4958 ;;		Nothing
  4959 ;; This function is called by:
  4960 ;;		_InterruptManager
  4961 ;; This function uses a non-reentrant model
  4962 ;;
  4963                           
  4964                           	psect	text30
  4965   002464                     __ptext30:
  4966                           	callstack 0
  4967   002464                     _TMR2_ISR:
  4968                           	callstack 23
  4969   002464                     
  4970                           ;MCAL_Layer/TIMER2/hal_timer2.c: 75:     (PIR1bits.TMR2IF = 0 );
  4971   002464  929E               	bcf	158,1,c	;volatile
  4972                           
  4973                           ;MCAL_Layer/TIMER2/hal_timer2.c: 76:     TMR2 = preload_val ;
  4974   002466  C03B  FFCC         	movff	_preload_val,4044	;volatile
  4975   00246A  0012               	return		;funcret
  4976   00246C                     __end_of_TMR2_ISR:
  4977                           	callstack 0
  4978                           
  4979 ;; *************** function _TMR1_ISR *****************
  4980 ;; Defined at:
  4981 ;;		line 108 in file "MCAL_Layer/TIMER1/hal_timer1.c"
  4982 ;; Parameters:    Size  Location     Type
  4983 ;;		None
  4984 ;; Auto vars:     Size  Location     Type
  4985 ;;		None
  4986 ;; Return value:  Size  Location     Type
  4987 ;;                  1    wreg      void 
  4988 ;; Registers used:
  4989 ;;		wreg, status,2, status,0, pcl, pclath, pclatu, tosl, cstack
  4990 ;; Tracked objects:
  4991 ;;		On entry : 0/0
  4992 ;;		On exit  : 0/0
  4993 ;;		Unchanged: 0/0
  4994 ;; Data sizes:     COMRAM   BANK0   BANK1   BANK2   BANK3   BANK4   BANK5   BANK6   BANK7   BANK8   BANK9  BANK10  BANK1
      +1  BANK12  BANK13  BANK14  BANK15
  4995 ;;      Params:         0       0       0       0       0       0       0       0       0       0       0       0       
      +0       0       0       0       0
  4996 ;;      Locals:         0       0       0       0       0       0       0       0       0       0       0       0       
      +0       0       0       0       0
  4997 ;;      Temps:          0       0       0       0       0       0       0       0       0       0       0       0       
      +0       0       0       0       0
  4998 ;;      Totals:         0       0       0       0       0       0       0       0       0       0       0       0       
      +0       0       0       0       0
  4999 ;;Total ram usage:        0 bytes
  5000 ;; Hardware stack levels used: 1
  5001 ;; Hardware stack levels required when called: 1
  5002 ;; This function calls:
  5003 ;;		NULL
  5004 ;;		_TMR_Isr
  5005 ;; This function is called by:
  5006 ;;		_InterruptManager
  5007 ;; This function uses a non-reentrant model
  5008 ;;
  5009                           
  5010                           	psect	text31
  5011   0022B6                     __ptext31:
  5012                           	callstack 0
  5013   0022B6                     _TMR1_ISR:
  5014                           	callstack 22
  5015   0022B6                     
  5016                           ;MCAL_Layer/TIMER1/hal_timer1.c: 109:     (PIR1bits.TMR1IF = 0 );
  5017   0022B6  909E               	bcf	158,0,c	;volatile
  5018   0022B8                     
  5019                           ;MCAL_Layer/TIMER1/hal_timer1.c: 110:      TMR1H = ((preload_value)>>8);
  5020   0022B8  5006               	movf	(_preload_value@hal_timer1$F3998+1)^0,w,c	;volatile
  5021   0022BA  6ECF               	movwf	207,c	;volatile
  5022   0022BC                     
  5023                           ;MCAL_Layer/TIMER1/hal_timer1.c: 111:        TMR1L = (uint8)(preload_value);
  5024   0022BC  C005  FFCE         	movff	_preload_value@hal_timer1$F3998,4046	;volatile
  5025   0022C0                     
  5026                           ;MCAL_Layer/TIMER1/hal_timer1.c: 112:     if(TIMER1_INTERRUPPT_HANDLERF)
  5027   0022C0  5003               	movf	_TIMER1_INTERRUPPT_HANDLERF^0,w,c
  5028   0022C2  1004               	iorwf	(_TIMER1_INTERRUPPT_HANDLERF+1)^0,w,c
  5029   0022C4  B4D8               	btfsc	status,2,c
  5030   0022C6  EF67  F011         	goto	i2u90_41
  5031   0022CA  EF69  F011         	goto	i2u90_40
  5032   0022CE                     i2u90_41:
  5033   0022CE  EF75  F011         	goto	i2l1585
  5034   0022D2                     i2u90_40:
  5035   0022D2                     
  5036                           ;MCAL_Layer/TIMER1/hal_timer1.c: 113:     {TIMER1_INTERRUPPT_HANDLERF();
  5037   0022D2  D802               	call	i2u91_48
  5038   0022D4  EF75  F011         	goto	i2u91_49
  5039   0022D8                     i2u91_48:
  5040   0022D8  0005               	push	
  5041   0022DA  6EFA               	movwf	pclath,c
  5042   0022DC  5003               	movf	_TIMER1_INTERRUPPT_HANDLERF^0,w,c
  5043   0022DE  6EFD               	movwf	tosl,c
  5044   0022E0  5004               	movf	(_TIMER1_INTERRUPPT_HANDLERF+1)^0,w,c
  5045   0022E2  6EFE               	movwf	tosh,c
  5046   0022E4  6AFF               	clrf	tosu,c
  5047   0022E6  50FA               	movf	pclath,w,c
  5048   0022E8  0012               	return		;indir
  5049   0022EA                     i2u91_49:
  5050   0022EA                     i2l1585:
  5051   0022EA  0012               	return		;funcret
  5052   0022EC                     __end_of_TMR1_ISR:
  5053                           	callstack 0
  5054                           
  5055 ;; *************** function _TMR_Isr *****************
  5056 ;; Defined at:
  5057 ;;		line 43 in file "application.c"
  5058 ;; Parameters:    Size  Location     Type
  5059 ;;		None
  5060 ;; Auto vars:     Size  Location     Type
  5061 ;;		None
  5062 ;; Return value:  Size  Location     Type
  5063 ;;                  1    wreg      void 
  5064 ;; Registers used:
  5065 ;;		status,2, status,0
  5066 ;; Tracked objects:
  5067 ;;		On entry : 0/0
  5068 ;;		On exit  : 0/0
  5069 ;;		Unchanged: 0/0
  5070 ;; Data sizes:     COMRAM   BANK0   BANK1   BANK2   BANK3   BANK4   BANK5   BANK6   BANK7   BANK8   BANK9  BANK10  BANK1
      +1  BANK12  BANK13  BANK14  BANK15
  5071 ;;      Params:         0       0       0       0       0       0       0       0       0       0       0       0       
      +0       0       0       0       0
  5072 ;;      Locals:         0       0       0       0       0       0       0       0       0       0       0       0       
      +0       0       0       0       0
  5073 ;;      Temps:          0       0       0       0       0       0       0       0       0       0       0       0       
      +0       0       0       0       0
  5074 ;;      Totals:         0       0       0       0       0       0       0       0       0       0       0       0       
      +0       0       0       0       0
  5075 ;;Total ram usage:        0 bytes
  5076 ;; Hardware stack levels used: 1
  5077 ;; This function calls:
  5078 ;;		Nothing
  5079 ;; This function is called by:
  5080 ;;		_interrupt_init1
  5081 ;;		_TMR1_ISR
  5082 ;; This function uses a non-reentrant model
  5083 ;;
  5084                           
  5085                           	psect	text32
  5086   00246C                     __ptext32:
  5087                           	callstack 0
  5088   00246C                     _TMR_Isr:
  5089                           	callstack 22
  5090   00246C                     
  5091                           ;application.c: 44:     tmr1_counter++;
  5092   00246C  2A3A               	incf	_tmr1_counter^0,f,c	;volatile
  5093   00246E  0012               	return		;funcret
  5094   002470                     __end_of_TMR_Isr:
  5095                           	callstack 0
  5096                           
  5097 ;; *************** function _TMR0_ISR *****************
  5098 ;; Defined at:
  5099 ;;		line 149 in file "MCAL_Layer/TIMER0/hal_timer0.c"
  5100 ;; Parameters:    Size  Location     Type
  5101 ;;		None
  5102 ;; Auto vars:     Size  Location     Type
  5103 ;;		None
  5104 ;; Return value:  Size  Location     Type
  5105 ;;                  1    wreg      void 
  5106 ;; Registers used:
  5107 ;;		wreg, status,2
  5108 ;; Tracked objects:
  5109 ;;		On entry : 0/0
  5110 ;;		On exit  : 0/0
  5111 ;;		Unchanged: 0/0
  5112 ;; Data sizes:     COMRAM   BANK0   BANK1   BANK2   BANK3   BANK4   BANK5   BANK6   BANK7   BANK8   BANK9  BANK10  BANK1
      +1  BANK12  BANK13  BANK14  BANK15
  5113 ;;      Params:         0       0       0       0       0       0       0       0       0       0       0       0       
      +0       0       0       0       0
  5114 ;;      Locals:         0       0       0       0       0       0       0       0       0       0       0       0       
      +0       0       0       0       0
  5115 ;;      Temps:          0       0       0       0       0       0       0       0       0       0       0       0       
      +0       0       0       0       0
  5116 ;;      Totals:         0       0       0       0       0       0       0       0       0       0       0       0       
      +0       0       0       0       0
  5117 ;;Total ram usage:        0 bytes
  5118 ;; Hardware stack levels used: 1
  5119 ;; This function calls:
  5120 ;;		Nothing
  5121 ;; This function is called by:
  5122 ;;		_InterruptManager
  5123 ;; This function uses a non-reentrant model
  5124 ;;
  5125                           
  5126                           	psect	text33
  5127   002442                     __ptext33:
  5128                           	callstack 0
  5129   002442                     _TMR0_ISR:
  5130                           	callstack 23
  5131   002442                     
  5132                           ;MCAL_Layer/TIMER0/hal_timer0.c: 150:     (INTCONbits.TMR0IF = 0);
  5133   002442  94F2               	bcf	242,2,c	;volatile
  5134   002444                     
  5135                           ;MCAL_Layer/TIMER0/hal_timer0.c: 151:     TMR0H = (preload_value >> 8);
  5136   002444  5008               	movf	(_preload_value+1)^0,w,c	;volatile
  5137   002446  6ED7               	movwf	215,c	;volatile
  5138   002448                     
  5139                           ;MCAL_Layer/TIMER0/hal_timer0.c: 152:     TMR0L =(uint8)(preload_value);
  5140   002448  C007  FFD6         	movff	_preload_value,4054	;volatile
  5141   00244C  0012               	return		;funcret
  5142   00244E                     __end_of_TMR0_ISR:
  5143                           	callstack 0
  5144                           
  5145 ;; *************** function _RB7_ISR *****************
  5146 ;; Defined at:
  5147 ;;		line 609 in file "MCAL_Layer/Interrupt/mcal_external_interrupt.c"
  5148 ;; Parameters:    Size  Location     Type
  5149 ;;  RB7_source      1    wreg     unsigned char 
  5150 ;; Auto vars:     Size  Location     Type
  5151 ;;  RB7_source      1    0[COMRAM] unsigned char 
  5152 ;; Return value:  Size  Location     Type
  5153 ;;                  1    wreg      void 
  5154 ;; Registers used:
  5155 ;;		wreg, status,2, status,0
  5156 ;; Tracked objects:
  5157 ;;		On entry : 0/0
  5158 ;;		On exit  : 0/0
  5159 ;;		Unchanged: 0/0
  5160 ;; Data sizes:     COMRAM   BANK0   BANK1   BANK2   BANK3   BANK4   BANK5   BANK6   BANK7   BANK8   BANK9  BANK10  BANK1
      +1  BANK12  BANK13  BANK14  BANK15
  5161 ;;      Params:         0       0       0       0       0       0       0       0       0       0       0       0       
      +0       0       0       0       0
  5162 ;;      Locals:         1       0       0       0       0       0       0       0       0       0       0       0       
      +0       0       0       0       0
  5163 ;;      Temps:          0       0       0       0       0       0       0       0       0       0       0       0       
      +0       0       0       0       0
  5164 ;;      Totals:         1       0       0       0       0       0       0       0       0       0       0       0       
      +0       0       0       0       0
  5165 ;;Total ram usage:        1 bytes
  5166 ;; Hardware stack levels used: 1
  5167 ;; This function calls:
  5168 ;;		Nothing
  5169 ;; This function is called by:
  5170 ;;		_InterruptManager
  5171 ;; This function uses a non-reentrant model
  5172 ;;
  5173                           
  5174                           	psect	text34
  5175   0023CE                     __ptext34:
  5176                           	callstack 0
  5177   0023CE                     _RB7_ISR:
  5178                           	callstack 23
  5179                           
  5180                           ;incstack = 0
  5181                           ;RB7_ISR@RB7_source stored from wreg
  5182   0023CE  6E43               	movwf	RB7_ISR@RB7_source^0,c
  5183   0023D0                     
  5184                           ;MCAL_Layer/Interrupt/mcal_external_interrupt.c: 611:     (INTCONbits.RBIF = 0);
  5185   0023D0  90F2               	bcf	242,0,c	;volatile
  5186   0023D2                     
  5187                           ;MCAL_Layer/Interrupt/mcal_external_interrupt.c: 613:     if(0 == RB7_source){
  5188   0023D2  5043               	movf	RB7_ISR@RB7_source^0,w,c
  5189   0023D4  A4D8               	btfss	status,2,c
  5190   0023D6  EFEF  F011         	goto	i2u89_41
  5191   0023DA  EFF1  F011         	goto	i2u89_40
  5192   0023DE                     i2u89_41:
  5193   0023DE  EFF3  F011         	goto	i2l3289
  5194   0023E2                     i2u89_40:
  5195   0023E2  EFF3  F011         	goto	i2l1115
  5196   0023E6                     i2l3289:
  5197   0023E6                     i2l1115:
  5198   0023E6  0012               	return		;funcret
  5199   0023E8                     __end_of_RB7_ISR:
  5200                           	callstack 0
  5201                           
  5202 ;; *************** function _RB6_ISR *****************
  5203 ;; Defined at:
  5204 ;;		line 585 in file "MCAL_Layer/Interrupt/mcal_external_interrupt.c"
  5205 ;; Parameters:    Size  Location     Type
  5206 ;;  RB6_source      1    wreg     unsigned char 
  5207 ;; Auto vars:     Size  Location     Type
  5208 ;;  RB6_source      1    0[COMRAM] unsigned char 
  5209 ;; Return value:  Size  Location     Type
  5210 ;;                  1    wreg      void 
  5211 ;; Registers used:
  5212 ;;		wreg, status,2, status,0
  5213 ;; Tracked objects:
  5214 ;;		On entry : 0/0
  5215 ;;		On exit  : 0/0
  5216 ;;		Unchanged: 0/0
  5217 ;; Data sizes:     COMRAM   BANK0   BANK1   BANK2   BANK3   BANK4   BANK5   BANK6   BANK7   BANK8   BANK9  BANK10  BANK1
      +1  BANK12  BANK13  BANK14  BANK15
  5218 ;;      Params:         0       0       0       0       0       0       0       0       0       0       0       0       
      +0       0       0       0       0
  5219 ;;      Locals:         1       0       0       0       0       0       0       0       0       0       0       0       
      +0       0       0       0       0
  5220 ;;      Temps:          0       0       0       0       0       0       0       0       0       0       0       0       
      +0       0       0       0       0
  5221 ;;      Totals:         1       0       0       0       0       0       0       0       0       0       0       0       
      +0       0       0       0       0
  5222 ;;Total ram usage:        1 bytes
  5223 ;; Hardware stack levels used: 1
  5224 ;; This function calls:
  5225 ;;		Nothing
  5226 ;; This function is called by:
  5227 ;;		_InterruptManager
  5228 ;; This function uses a non-reentrant model
  5229 ;;
  5230                           
  5231                           	psect	text35
  5232   0023E8                     __ptext35:
  5233                           	callstack 0
  5234   0023E8                     _RB6_ISR:
  5235                           	callstack 23
  5236                           
  5237                           ;incstack = 0
  5238                           ;RB6_ISR@RB6_source stored from wreg
  5239   0023E8  6E43               	movwf	RB6_ISR@RB6_source^0,c
  5240   0023EA                     
  5241                           ;MCAL_Layer/Interrupt/mcal_external_interrupt.c: 587:     (INTCONbits.RBIF = 0);
  5242   0023EA  90F2               	bcf	242,0,c	;volatile
  5243   0023EC                     
  5244                           ;MCAL_Layer/Interrupt/mcal_external_interrupt.c: 589:     if(0 == RB6_source){
  5245   0023EC  5043               	movf	RB6_ISR@RB6_source^0,w,c
  5246   0023EE  A4D8               	btfss	status,2,c
  5247   0023F0  EFFC  F011         	goto	i2u88_41
  5248   0023F4  EFFE  F011         	goto	i2u88_40
  5249   0023F8                     i2u88_41:
  5250   0023F8  EF00  F012         	goto	i2l3275
  5251   0023FC                     i2u88_40:
  5252   0023FC  EF00  F012         	goto	i2l1104
  5253   002400                     i2l3275:
  5254   002400                     i2l1104:
  5255   002400  0012               	return		;funcret
  5256   002402                     __end_of_RB6_ISR:
  5257                           	callstack 0
  5258                           
  5259 ;; *************** function _RB5_ISR *****************
  5260 ;; Defined at:
  5261 ;;		line 561 in file "MCAL_Layer/Interrupt/mcal_external_interrupt.c"
  5262 ;; Parameters:    Size  Location     Type
  5263 ;;  RB5_source      1    wreg     unsigned char 
  5264 ;; Auto vars:     Size  Location     Type
  5265 ;;  RB5_source      1    0[COMRAM] unsigned char 
  5266 ;; Return value:  Size  Location     Type
  5267 ;;                  1    wreg      void 
  5268 ;; Registers used:
  5269 ;;		wreg, status,2, status,0
  5270 ;; Tracked objects:
  5271 ;;		On entry : 0/0
  5272 ;;		On exit  : 0/0
  5273 ;;		Unchanged: 0/0
  5274 ;; Data sizes:     COMRAM   BANK0   BANK1   BANK2   BANK3   BANK4   BANK5   BANK6   BANK7   BANK8   BANK9  BANK10  BANK1
      +1  BANK12  BANK13  BANK14  BANK15
  5275 ;;      Params:         0       0       0       0       0       0       0       0       0       0       0       0       
      +0       0       0       0       0
  5276 ;;      Locals:         1       0       0       0       0       0       0       0       0       0       0       0       
      +0       0       0       0       0
  5277 ;;      Temps:          0       0       0       0       0       0       0       0       0       0       0       0       
      +0       0       0       0       0
  5278 ;;      Totals:         1       0       0       0       0       0       0       0       0       0       0       0       
      +0       0       0       0       0
  5279 ;;Total ram usage:        1 bytes
  5280 ;; Hardware stack levels used: 1
  5281 ;; This function calls:
  5282 ;;		Nothing
  5283 ;; This function is called by:
  5284 ;;		_InterruptManager
  5285 ;; This function uses a non-reentrant model
  5286 ;;
  5287                           
  5288                           	psect	text36
  5289   002402                     __ptext36:
  5290                           	callstack 0
  5291   002402                     _RB5_ISR:
  5292                           	callstack 23
  5293                           
  5294                           ;incstack = 0
  5295                           ;RB5_ISR@RB5_source stored from wreg
  5296   002402  6E43               	movwf	RB5_ISR@RB5_source^0,c
  5297   002404                     
  5298                           ;MCAL_Layer/Interrupt/mcal_external_interrupt.c: 563:     (INTCONbits.RBIF = 0);
  5299   002404  90F2               	bcf	242,0,c	;volatile
  5300   002406                     
  5301                           ;MCAL_Layer/Interrupt/mcal_external_interrupt.c: 565:     if(0 == RB5_source){
  5302   002406  5043               	movf	RB5_ISR@RB5_source^0,w,c
  5303   002408  A4D8               	btfss	status,2,c
  5304   00240A  EF09  F012         	goto	i2u87_41
  5305   00240E  EF0B  F012         	goto	i2u87_40
  5306   002412                     i2u87_41:
  5307   002412  EF0D  F012         	goto	i2l3261
  5308   002416                     i2u87_40:
  5309   002416  EF0D  F012         	goto	i2l1093
  5310   00241A                     i2l3261:
  5311   00241A                     i2l1093:
  5312   00241A  0012               	return		;funcret
  5313   00241C                     __end_of_RB5_ISR:
  5314                           	callstack 0
  5315                           
  5316 ;; *************** function _RB4_ISR *****************
  5317 ;; Defined at:
  5318 ;;		line 536 in file "MCAL_Layer/Interrupt/mcal_external_interrupt.c"
  5319 ;; Parameters:    Size  Location     Type
  5320 ;;  RB4_source      1    wreg     unsigned char 
  5321 ;; Auto vars:     Size  Location     Type
  5322 ;;  RB4_source      1    0[COMRAM] unsigned char 
  5323 ;; Return value:  Size  Location     Type
  5324 ;;                  1    wreg      void 
  5325 ;; Registers used:
  5326 ;;		wreg, status,2, status,0
  5327 ;; Tracked objects:
  5328 ;;		On entry : 0/0
  5329 ;;		On exit  : 0/0
  5330 ;;		Unchanged: 0/0
  5331 ;; Data sizes:     COMRAM   BANK0   BANK1   BANK2   BANK3   BANK4   BANK5   BANK6   BANK7   BANK8   BANK9  BANK10  BANK1
      +1  BANK12  BANK13  BANK14  BANK15
  5332 ;;      Params:         0       0       0       0       0       0       0       0       0       0       0       0       
      +0       0       0       0       0
  5333 ;;      Locals:         1       0       0       0       0       0       0       0       0       0       0       0       
      +0       0       0       0       0
  5334 ;;      Temps:          0       0       0       0       0       0       0       0       0       0       0       0       
      +0       0       0       0       0
  5335 ;;      Totals:         1       0       0       0       0       0       0       0       0       0       0       0       
      +0       0       0       0       0
  5336 ;;Total ram usage:        1 bytes
  5337 ;; Hardware stack levels used: 1
  5338 ;; This function calls:
  5339 ;;		Nothing
  5340 ;; This function is called by:
  5341 ;;		_InterruptManager
  5342 ;; This function uses a non-reentrant model
  5343 ;;
  5344                           
  5345                           	psect	text37
  5346   00241C                     __ptext37:
  5347                           	callstack 0
  5348   00241C                     _RB4_ISR:
  5349                           	callstack 23
  5350                           
  5351                           ;incstack = 0
  5352                           ;RB4_ISR@RB4_source stored from wreg
  5353   00241C  6E43               	movwf	RB4_ISR@RB4_source^0,c
  5354   00241E                     
  5355                           ;MCAL_Layer/Interrupt/mcal_external_interrupt.c: 538:     (INTCONbits.RBIF = 0);
  5356   00241E  90F2               	bcf	242,0,c	;volatile
  5357   002420                     
  5358                           ;MCAL_Layer/Interrupt/mcal_external_interrupt.c: 540:     if(0 == RB4_source){
  5359   002420  5043               	movf	RB4_ISR@RB4_source^0,w,c
  5360   002422  A4D8               	btfss	status,2,c
  5361   002424  EF16  F012         	goto	i2u86_41
  5362   002428  EF18  F012         	goto	i2u86_40
  5363   00242C                     i2u86_41:
  5364   00242C  EF1A  F012         	goto	i2l3247
  5365   002430                     i2u86_40:
  5366   002430  EF1A  F012         	goto	i2l1082
  5367   002434                     i2l3247:
  5368   002434                     i2l1082:
  5369   002434  0012               	return		;funcret
  5370   002436                     __end_of_RB4_ISR:
  5371                           	callstack 0
  5372                           
  5373 ;; *************** function _MSSP_Spi_ISR *****************
  5374 ;; Defined at:
  5375 ;;		line 177 in file "MCAL_Layer/MSSP_SPI/hal_spi.c"
  5376 ;; Parameters:    Size  Location     Type
  5377 ;;		None
  5378 ;; Auto vars:     Size  Location     Type
  5379 ;;		None
  5380 ;; Return value:  Size  Location     Type
  5381 ;;                  1    wreg      void 
  5382 ;; Registers used:
  5383 ;;		None
  5384 ;; Tracked objects:
  5385 ;;		On entry : 0/0
  5386 ;;		On exit  : 0/0
  5387 ;;		Unchanged: 0/0
  5388 ;; Data sizes:     COMRAM   BANK0   BANK1   BANK2   BANK3   BANK4   BANK5   BANK6   BANK7   BANK8   BANK9  BANK10  BANK1
      +1  BANK12  BANK13  BANK14  BANK15
  5389 ;;      Params:         0       0       0       0       0       0       0       0       0       0       0       0       
      +0       0       0       0       0
  5390 ;;      Locals:         0       0       0       0       0       0       0       0       0       0       0       0       
      +0       0       0       0       0
  5391 ;;      Temps:          0       0       0       0       0       0       0       0       0       0       0       0       
      +0       0       0       0       0
  5392 ;;      Totals:         0       0       0       0       0       0       0       0       0       0       0       0       
      +0       0       0       0       0
  5393 ;;Total ram usage:        0 bytes
  5394 ;; Hardware stack levels used: 1
  5395 ;; This function calls:
  5396 ;;		Nothing
  5397 ;; This function is called by:
  5398 ;;		_InterruptManager
  5399 ;; This function uses a non-reentrant model
  5400 ;;
  5401                           
  5402                           	psect	text38
  5403   002470                     __ptext38:
  5404                           	callstack 0
  5405   002470                     _MSSP_Spi_ISR:
  5406                           	callstack 23
  5407   002470                     
  5408                           ;MCAL_Layer/MSSP_SPI/hal_spi.c: 178:   (PIR1bits.SSPIF = 0 );
  5409   002470  969E               	bcf	158,3,c	;volatile
  5410   002472  0012               	return		;funcret
  5411   002474                     __end_of_MSSP_Spi_ISR:
  5412                           	callstack 0
  5413                           
  5414 ;; *************** function _INT2_ISR *****************
  5415 ;; Defined at:
  5416 ;;		line 522 in file "MCAL_Layer/Interrupt/mcal_external_interrupt.c"
  5417 ;; Parameters:    Size  Location     Type
  5418 ;;		None
  5419 ;; Auto vars:     Size  Location     Type
  5420 ;;		None
  5421 ;; Return value:  Size  Location     Type
  5422 ;;                  1    wreg      void 
  5423 ;; Registers used:
  5424 ;;		None
  5425 ;; Tracked objects:
  5426 ;;		On entry : 0/0
  5427 ;;		On exit  : 0/0
  5428 ;;		Unchanged: 0/0
  5429 ;; Data sizes:     COMRAM   BANK0   BANK1   BANK2   BANK3   BANK4   BANK5   BANK6   BANK7   BANK8   BANK9  BANK10  BANK1
      +1  BANK12  BANK13  BANK14  BANK15
  5430 ;;      Params:         0       0       0       0       0       0       0       0       0       0       0       0       
      +0       0       0       0       0
  5431 ;;      Locals:         0       0       0       0       0       0       0       0       0       0       0       0       
      +0       0       0       0       0
  5432 ;;      Temps:          0       0       0       0       0       0       0       0       0       0       0       0       
      +0       0       0       0       0
  5433 ;;      Totals:         0       0       0       0       0       0       0       0       0       0       0       0       
      +0       0       0       0       0
  5434 ;;Total ram usage:        0 bytes
  5435 ;; Hardware stack levels used: 1
  5436 ;; This function calls:
  5437 ;;		Nothing
  5438 ;; This function is called by:
  5439 ;;		_InterruptManager
  5440 ;; This function uses a non-reentrant model
  5441 ;;
  5442                           
  5443                           	psect	text39
  5444   002474                     __ptext39:
  5445                           	callstack 0
  5446   002474                     _INT2_ISR:
  5447                           	callstack 23
  5448   002474                     
  5449                           ;MCAL_Layer/Interrupt/mcal_external_interrupt.c: 524:     (INTCON3bits.INT2IF = 0);
  5450   002474  92F0               	bcf	240,1,c	;volatile
  5451   002476  0012               	return		;funcret
  5452   002478                     __end_of_INT2_ISR:
  5453                           	callstack 0
  5454                           
  5455 ;; *************** function _INT1_ISR *****************
  5456 ;; Defined at:
  5457 ;;		line 508 in file "MCAL_Layer/Interrupt/mcal_external_interrupt.c"
  5458 ;; Parameters:    Size  Location     Type
  5459 ;;		None
  5460 ;; Auto vars:     Size  Location     Type
  5461 ;;		None
  5462 ;; Return value:  Size  Location     Type
  5463 ;;                  1    wreg      void 
  5464 ;; Registers used:
  5465 ;;		None
  5466 ;; Tracked objects:
  5467 ;;		On entry : 0/0
  5468 ;;		On exit  : 0/0
  5469 ;;		Unchanged: 0/0
  5470 ;; Data sizes:     COMRAM   BANK0   BANK1   BANK2   BANK3   BANK4   BANK5   BANK6   BANK7   BANK8   BANK9  BANK10  BANK1
      +1  BANK12  BANK13  BANK14  BANK15
  5471 ;;      Params:         0       0       0       0       0       0       0       0       0       0       0       0       
      +0       0       0       0       0
  5472 ;;      Locals:         0       0       0       0       0       0       0       0       0       0       0       0       
      +0       0       0       0       0
  5473 ;;      Temps:          0       0       0       0       0       0       0       0       0       0       0       0       
      +0       0       0       0       0
  5474 ;;      Totals:         0       0       0       0       0       0       0       0       0       0       0       0       
      +0       0       0       0       0
  5475 ;;Total ram usage:        0 bytes
  5476 ;; Hardware stack levels used: 1
  5477 ;; This function calls:
  5478 ;;		Nothing
  5479 ;; This function is called by:
  5480 ;;		_InterruptManager
  5481 ;; This function uses a non-reentrant model
  5482 ;;
  5483                           
  5484                           	psect	text40
  5485   002478                     __ptext40:
  5486                           	callstack 0
  5487   002478                     _INT1_ISR:
  5488                           	callstack 23
  5489   002478                     
  5490                           ;MCAL_Layer/Interrupt/mcal_external_interrupt.c: 510:     (INTCON3bits.INT1IF = 0);
  5491   002478  90F0               	bcf	240,0,c	;volatile
  5492   00247A  0012               	return		;funcret
  5493   00247C                     __end_of_INT1_ISR:
  5494                           	callstack 0
  5495                           
  5496 ;; *************** function _INT0_ISR *****************
  5497 ;; Defined at:
  5498 ;;		line 497 in file "MCAL_Layer/Interrupt/mcal_external_interrupt.c"
  5499 ;; Parameters:    Size  Location     Type
  5500 ;;		None
  5501 ;; Auto vars:     Size  Location     Type
  5502 ;;		None
  5503 ;; Return value:  Size  Location     Type
  5504 ;;                  1    wreg      void 
  5505 ;; Registers used:
  5506 ;;		None
  5507 ;; Tracked objects:
  5508 ;;		On entry : 0/0
  5509 ;;		On exit  : 0/0
  5510 ;;		Unchanged: 0/0
  5511 ;; Data sizes:     COMRAM   BANK0   BANK1   BANK2   BANK3   BANK4   BANK5   BANK6   BANK7   BANK8   BANK9  BANK10  BANK1
      +1  BANK12  BANK13  BANK14  BANK15
  5512 ;;      Params:         0       0       0       0       0       0       0       0       0       0       0       0       
      +0       0       0       0       0
  5513 ;;      Locals:         0       0       0       0       0       0       0       0       0       0       0       0       
      +0       0       0       0       0
  5514 ;;      Temps:          0       0       0       0       0       0       0       0       0       0       0       0       
      +0       0       0       0       0
  5515 ;;      Totals:         0       0       0       0       0       0       0       0       0       0       0       0       
      +0       0       0       0       0
  5516 ;;Total ram usage:        0 bytes
  5517 ;; Hardware stack levels used: 1
  5518 ;; This function calls:
  5519 ;;		Nothing
  5520 ;; This function is called by:
  5521 ;;		_InterruptManager
  5522 ;; This function uses a non-reentrant model
  5523 ;;
  5524                           
  5525                           	psect	text41
  5526   00247C                     __ptext41:
  5527                           	callstack 0
  5528   00247C                     _INT0_ISR:
  5529                           	callstack 23
  5530   00247C                     
  5531                           ;MCAL_Layer/Interrupt/mcal_external_interrupt.c: 499:     (INTCONbits.INT0IF = 0);
  5532   00247C  92F2               	bcf	242,1,c	;volatile
  5533   00247E  0012               	return		;funcret
  5534   002480                     __end_of_INT0_ISR:
  5535                           	callstack 0
  5536                           
  5537 ;; *************** function _I2C_MODULE_TR_ISR *****************
  5538 ;; Defined at:
  5539 ;;		line 242 in file "MCAL_Layer/MSSP_I2C/hal_i2c.c"
  5540 ;; Parameters:    Size  Location     Type
  5541 ;;		None
  5542 ;; Auto vars:     Size  Location     Type
  5543 ;;		None
  5544 ;; Return value:  Size  Location     Type
  5545 ;;                  1    wreg      void 
  5546 ;; Registers used:
  5547 ;;		None
  5548 ;; Tracked objects:
  5549 ;;		On entry : 0/0
  5550 ;;		On exit  : 0/0
  5551 ;;		Unchanged: 0/0
  5552 ;; Data sizes:     COMRAM   BANK0   BANK1   BANK2   BANK3   BANK4   BANK5   BANK6   BANK7   BANK8   BANK9  BANK10  BANK1
      +1  BANK12  BANK13  BANK14  BANK15
  5553 ;;      Params:         0       0       0       0       0       0       0       0       0       0       0       0       
      +0       0       0       0       0
  5554 ;;      Locals:         0       0       0       0       0       0       0       0       0       0       0       0       
      +0       0       0       0       0
  5555 ;;      Temps:          0       0       0       0       0       0       0       0       0       0       0       0       
      +0       0       0       0       0
  5556 ;;      Totals:         0       0       0       0       0       0       0       0       0       0       0       0       
      +0       0       0       0       0
  5557 ;;Total ram usage:        0 bytes
  5558 ;; Hardware stack levels used: 1
  5559 ;; This function calls:
  5560 ;;		Nothing
  5561 ;; This function is called by:
  5562 ;;		_InterruptManager
  5563 ;; This function uses a non-reentrant model
  5564 ;;
  5565                           
  5566                           	psect	text42
  5567   002480                     __ptext42:
  5568                           	callstack 0
  5569   002480                     _I2C_MODULE_TR_ISR:
  5570                           	callstack 23
  5571   002480                     
  5572                           ;MCAL_Layer/MSSP_I2C/hal_i2c.c: 243: (PIR1bits.SSPIF = 0);
  5573   002480  969E               	bcf	158,3,c	;volatile
  5574   002482  0012               	return		;funcret
  5575   002484                     __end_of_I2C_MODULE_TR_ISR:
  5576                           	callstack 0
  5577                           
  5578 ;; *************** function _I2C_BUS_COLLISION_ISR *****************
  5579 ;; Defined at:
  5580 ;;		line 233 in file "MCAL_Layer/MSSP_I2C/hal_i2c.c"
  5581 ;; Parameters:    Size  Location     Type
  5582 ;;		None
  5583 ;; Auto vars:     Size  Location     Type
  5584 ;;		None
  5585 ;; Return value:  Size  Location     Type
  5586 ;;                  1    wreg      void 
  5587 ;; Registers used:
  5588 ;;		None
  5589 ;; Tracked objects:
  5590 ;;		On entry : 0/0
  5591 ;;		On exit  : 0/0
  5592 ;;		Unchanged: 0/0
  5593 ;; Data sizes:     COMRAM   BANK0   BANK1   BANK2   BANK3   BANK4   BANK5   BANK6   BANK7   BANK8   BANK9  BANK10  BANK1
      +1  BANK12  BANK13  BANK14  BANK15
  5594 ;;      Params:         0       0       0       0       0       0       0       0       0       0       0       0       
      +0       0       0       0       0
  5595 ;;      Locals:         0       0       0       0       0       0       0       0       0       0       0       0       
      +0       0       0       0       0
  5596 ;;      Temps:          0       0       0       0       0       0       0       0       0       0       0       0       
      +0       0       0       0       0
  5597 ;;      Totals:         0       0       0       0       0       0       0       0       0       0       0       0       
      +0       0       0       0       0
  5598 ;;Total ram usage:        0 bytes
  5599 ;; Hardware stack levels used: 1
  5600 ;; This function calls:
  5601 ;;		Nothing
  5602 ;; This function is called by:
  5603 ;;		_InterruptManager
  5604 ;; This function uses a non-reentrant model
  5605 ;;
  5606                           
  5607                           	psect	text43
  5608   002484                     __ptext43:
  5609                           	callstack 0
  5610   002484                     _I2C_BUS_COLLISION_ISR:
  5611                           	callstack 23
  5612   002484                     
  5613                           ;MCAL_Layer/MSSP_I2C/hal_i2c.c: 234: (PIR2bits.BCLIF = 0);
  5614   002484  96A1               	bcf	161,3,c	;volatile
  5615   002486  0012               	return		;funcret
  5616   002488                     __end_of_I2C_BUS_COLLISION_ISR:
  5617                           	callstack 0
  5618                           
  5619 ;; *************** function _EUSART_TX_ASY_ISR *****************
  5620 ;; Defined at:
  5621 ;;		line 267 in file "MCAL_Layer/EUSART/hal_usart.c"
  5622 ;; Parameters:    Size  Location     Type
  5623 ;;		None
  5624 ;; Auto vars:     Size  Location     Type
  5625 ;;		None
  5626 ;; Return value:  Size  Location     Type
  5627 ;;                  1    wreg      void 
  5628 ;; Registers used:
  5629 ;;		None
  5630 ;; Tracked objects:
  5631 ;;		On entry : 0/0
  5632 ;;		On exit  : 0/0
  5633 ;;		Unchanged: 0/0
  5634 ;; Data sizes:     COMRAM   BANK0   BANK1   BANK2   BANK3   BANK4   BANK5   BANK6   BANK7   BANK8   BANK9  BANK10  BANK1
      +1  BANK12  BANK13  BANK14  BANK15
  5635 ;;      Params:         0       0       0       0       0       0       0       0       0       0       0       0       
      +0       0       0       0       0
  5636 ;;      Locals:         0       0       0       0       0       0       0       0       0       0       0       0       
      +0       0       0       0       0
  5637 ;;      Temps:          0       0       0       0       0       0       0       0       0       0       0       0       
      +0       0       0       0       0
  5638 ;;      Totals:         0       0       0       0       0       0       0       0       0       0       0       0       
      +0       0       0       0       0
  5639 ;;Total ram usage:        0 bytes
  5640 ;; Hardware stack levels used: 1
  5641 ;; This function calls:
  5642 ;;		Nothing
  5643 ;; This function is called by:
  5644 ;;		_InterruptManager
  5645 ;; This function uses a non-reentrant model
  5646 ;;
  5647                           
  5648                           	psect	text44
  5649   002488                     __ptext44:
  5650                           	callstack 0
  5651   002488                     _EUSART_TX_ASY_ISR:
  5652                           	callstack 23
  5653   002488                     
  5654                           ;MCAL_Layer/EUSART/hal_usart.c: 268: (PIE1bits.TXIE =0);
  5655   002488  989D               	bcf	157,4,c	;volatile
  5656   00248A  0012               	return		;funcret
  5657   00248C                     __end_of_EUSART_TX_ASY_ISR:
  5658                           	callstack 0
  5659                           
  5660 ;; *************** function _EUSART_RX_ASY_ISR *****************
  5661 ;; Defined at:
  5662 ;;		line 276 in file "MCAL_Layer/EUSART/hal_usart.c"
  5663 ;; Parameters:    Size  Location     Type
  5664 ;;		None
  5665 ;; Auto vars:     Size  Location     Type
  5666 ;;		None
  5667 ;; Return value:  Size  Location     Type
  5668 ;;                  1    wreg      void 
  5669 ;; Registers used:
  5670 ;;		wreg, status,2, status,0
  5671 ;; Tracked objects:
  5672 ;;		On entry : 0/0
  5673 ;;		On exit  : 0/0
  5674 ;;		Unchanged: 0/0
  5675 ;; Data sizes:     COMRAM   BANK0   BANK1   BANK2   BANK3   BANK4   BANK5   BANK6   BANK7   BANK8   BANK9  BANK10  BANK1
      +1  BANK12  BANK13  BANK14  BANK15
  5676 ;;      Params:         0       0       0       0       0       0       0       0       0       0       0       0       
      +0       0       0       0       0
  5677 ;;      Locals:         0       0       0       0       0       0       0       0       0       0       0       0       
      +0       0       0       0       0
  5678 ;;      Temps:          0       0       0       0       0       0       0       0       0       0       0       0       
      +0       0       0       0       0
  5679 ;;      Totals:         0       0       0       0       0       0       0       0       0       0       0       0       
      +0       0       0       0       0
  5680 ;;Total ram usage:        0 bytes
  5681 ;; Hardware stack levels used: 1
  5682 ;; This function calls:
  5683 ;;		Nothing
  5684 ;; This function is called by:
  5685 ;;		_InterruptManager
  5686 ;; This function uses a non-reentrant model
  5687 ;;
  5688                           
  5689                           	psect	text45
  5690   00249A                     __ptext45:
  5691                           	callstack 0
  5692   00249A                     _EUSART_RX_ASY_ISR:
  5693                           	callstack 23
  5694   00249A  0012               	return		;funcret
  5695   00249C                     __end_of_EUSART_RX_ASY_ISR:
  5696                           	callstack 0
  5697                           
  5698 ;; *************** function _CCP2_ISR *****************
  5699 ;; Defined at:
  5700 ;;		line 188 in file "MCAL_Layer/CPP1/hal_ccp.c"
  5701 ;; Parameters:    Size  Location     Type
  5702 ;;		None
  5703 ;; Auto vars:     Size  Location     Type
  5704 ;;		None
  5705 ;; Return value:  Size  Location     Type
  5706 ;;                  1    wreg      void 
  5707 ;; Registers used:
  5708 ;;		None
  5709 ;; Tracked objects:
  5710 ;;		On entry : 0/0
  5711 ;;		On exit  : 0/0
  5712 ;;		Unchanged: 0/0
  5713 ;; Data sizes:     COMRAM   BANK0   BANK1   BANK2   BANK3   BANK4   BANK5   BANK6   BANK7   BANK8   BANK9  BANK10  BANK1
      +1  BANK12  BANK13  BANK14  BANK15
  5714 ;;      Params:         0       0       0       0       0       0       0       0       0       0       0       0       
      +0       0       0       0       0
  5715 ;;      Locals:         0       0       0       0       0       0       0       0       0       0       0       0       
      +0       0       0       0       0
  5716 ;;      Temps:          0       0       0       0       0       0       0       0       0       0       0       0       
      +0       0       0       0       0
  5717 ;;      Totals:         0       0       0       0       0       0       0       0       0       0       0       0       
      +0       0       0       0       0
  5718 ;;Total ram usage:        0 bytes
  5719 ;; Hardware stack levels used: 1
  5720 ;; This function calls:
  5721 ;;		Nothing
  5722 ;; This function is called by:
  5723 ;;		_InterruptManager
  5724 ;; This function uses a non-reentrant model
  5725 ;;
  5726                           
  5727                           	psect	text46
  5728   00248C                     __ptext46:
  5729                           	callstack 0
  5730   00248C                     _CCP2_ISR:
  5731                           	callstack 23
  5732   00248C                     
  5733                           ;MCAL_Layer/CPP1/hal_ccp.c: 189: (PIR2bits.CCP2IF = 0 );
  5734   00248C  90A1               	bcf	161,0,c	;volatile
  5735   00248E  0012               	return		;funcret
  5736   002490                     __end_of_CCP2_ISR:
  5737                           	callstack 0
  5738                           
  5739 ;; *************** function _CCP1_ISR *****************
  5740 ;; Defined at:
  5741 ;;		line 179 in file "MCAL_Layer/CPP1/hal_ccp.c"
  5742 ;; Parameters:    Size  Location     Type
  5743 ;;		None
  5744 ;; Auto vars:     Size  Location     Type
  5745 ;;		None
  5746 ;; Return value:  Size  Location     Type
  5747 ;;                  1    wreg      void 
  5748 ;; Registers used:
  5749 ;;		None
  5750 ;; Tracked objects:
  5751 ;;		On entry : 0/0
  5752 ;;		On exit  : 0/0
  5753 ;;		Unchanged: 0/0
  5754 ;; Data sizes:     COMRAM   BANK0   BANK1   BANK2   BANK3   BANK4   BANK5   BANK6   BANK7   BANK8   BANK9  BANK10  BANK1
      +1  BANK12  BANK13  BANK14  BANK15
  5755 ;;      Params:         0       0       0       0       0       0       0       0       0       0       0       0       
      +0       0       0       0       0
  5756 ;;      Locals:         0       0       0       0       0       0       0       0       0       0       0       0       
      +0       0       0       0       0
  5757 ;;      Temps:          0       0       0       0       0       0       0       0       0       0       0       0       
      +0       0       0       0       0
  5758 ;;      Totals:         0       0       0       0       0       0       0       0       0       0       0       0       
      +0       0       0       0       0
  5759 ;;Total ram usage:        0 bytes
  5760 ;; Hardware stack levels used: 1
  5761 ;; This function calls:
  5762 ;;		Nothing
  5763 ;; This function is called by:
  5764 ;;		_InterruptManager
  5765 ;; This function uses a non-reentrant model
  5766 ;;
  5767                           
  5768                           	psect	text47
  5769   002490                     __ptext47:
  5770                           	callstack 0
  5771   002490                     _CCP1_ISR:
  5772                           	callstack 23
  5773   002490                     
  5774                           ;MCAL_Layer/CPP1/hal_ccp.c: 180: (PIR1bits.CCP1IF = 0 );
  5775   002490  949E               	bcf	158,2,c	;volatile
  5776   002492  0012               	return		;funcret
  5777   002494                     __end_of_CCP1_ISR:
  5778                           	callstack 0
  5779                           
  5780 ;; *************** function _ADC_ISR *****************
  5781 ;; Defined at:
  5782 ;;		line 248 in file "MCAL_Layer/ADC/hal_adc.c"
  5783 ;; Parameters:    Size  Location     Type
  5784 ;;		None
  5785 ;; Auto vars:     Size  Location     Type
  5786 ;;		None
  5787 ;; Return value:  Size  Location     Type
  5788 ;;                  1    wreg      void 
  5789 ;; Registers used:
  5790 ;;		None
  5791 ;; Tracked objects:
  5792 ;;		On entry : 0/0
  5793 ;;		On exit  : 0/0
  5794 ;;		Unchanged: 0/0
  5795 ;; Data sizes:     COMRAM   BANK0   BANK1   BANK2   BANK3   BANK4   BANK5   BANK6   BANK7   BANK8   BANK9  BANK10  BANK1
      +1  BANK12  BANK13  BANK14  BANK15
  5796 ;;      Params:         0       0       0       0       0       0       0       0       0       0       0       0       
      +0       0       0       0       0
  5797 ;;      Locals:         0       0       0       0       0       0       0       0       0       0       0       0       
      +0       0       0       0       0
  5798 ;;      Temps:          0       0       0       0       0       0       0       0       0       0       0       0       
      +0       0       0       0       0
  5799 ;;      Totals:         0       0       0       0       0       0       0       0       0       0       0       0       
      +0       0       0       0       0
  5800 ;;Total ram usage:        0 bytes
  5801 ;; Hardware stack levels used: 1
  5802 ;; This function calls:
  5803 ;;		Nothing
  5804 ;; This function is called by:
  5805 ;;		_InterruptManager
  5806 ;; This function uses a non-reentrant model
  5807 ;;
  5808                           
  5809                           	psect	text48
  5810   002494                     __ptext48:
  5811                           	callstack 0
  5812   002494                     _ADC_ISR:
  5813                           	callstack 23
  5814   002494                     
  5815                           ;MCAL_Layer/ADC/hal_adc.c: 249: (PIR1bits.ADIF = 0);
  5816   002494  9C9E               	bcf	158,6,c	;volatile
  5817   002496  0012               	return		;funcret
  5818   002498                     __end_of_ADC_ISR:
  5819                           	callstack 0
  5820                           
  5821                           	psect	text49
  5822   000000                     __ptext49:
  5823                           	callstack 0
  5824   000000                     
  5825                           	psect	rparam
  5826   000000                     
  5827                           	psect	temp
  5828   00007C                     btemp:
  5829                           	callstack 0
  5830   00007C                     	ds	1
  5831   000000                     int$flags	set	btemp
  5832   000000                     wtemp8	set	btemp+1
  5833   000000                     ttemp5	set	btemp+1
  5834   000000                     ttemp6	set	btemp+4
  5835   000000                     ttemp7	set	btemp+8
  5836                           
  5837                           	psect	config
  5838                           
  5839                           ; Padding undefined space
  5840   300000                     	org	3145728
  5841   300000  FF                 	db	255
  5842                           
  5843                           ;Config register CONFIG1H @ 0x300001
  5844                           ;	Oscillator Selection bits
  5845                           ;	OSC = HS, HS oscillator
  5846                           ;	Fail-Safe Clock Monitor Enable bit
  5847                           ;	FCMEN = OFF, Fail-Safe Clock Monitor disabled
  5848                           ;	Internal/External Oscillator Switchover bit
  5849                           ;	IESO = OFF, Oscillator Switchover mode disabled
  5850   300001                     	org	3145729
  5851   300001  02                 	db	2
  5852                           
  5853                           ;Config register CONFIG2L @ 0x300002
  5854                           ;	Power-up Timer Enable bit
  5855                           ;	PWRT = OFF, PWRT disabled
  5856                           ;	Brown-out Reset Enable bits
  5857                           ;	BOREN = OFF, Brown-out Reset disabled in hardware and software
  5858                           ;	Brown Out Reset Voltage bits
  5859                           ;	BORV = 1, 
  5860   300002                     	org	3145730
  5861   300002  09                 	db	9
  5862                           
  5863                           ;Config register CONFIG2H @ 0x300003
  5864                           ;	Watchdog Timer Enable bit
  5865                           ;	WDT = OFF, WDT disabled (control is placed on the SWDTEN bit)
  5866                           ;	Watchdog Timer Postscale Select bits
  5867                           ;	WDTPS = 32768, 1:32768
  5868   300003                     	org	3145731
  5869   300003  1E                 	db	30
  5870                           
  5871                           ; Padding undefined space
  5872   300004                     	org	3145732
  5873   300004  FF                 	db	255
  5874                           
  5875                           ;Config register CONFIG3H @ 0x300005
  5876                           ;	CCP2 MUX bit
  5877                           ;	CCP2MX = PORTC, CCP2 input/output is multiplexed with RC1
  5878                           ;	PORTB A/D Enable bit
  5879                           ;	PBADEN = OFF, PORTB<4:0> pins are configured as digital I/O on Reset
  5880                           ;	Low-Power Timer1 Oscillator Enable bit
  5881                           ;	LPT1OSC = OFF, Timer1 configured for higher power operation
  5882                           ;	MCLR Pin Enable bit
  5883                           ;	MCLRE = ON, MCLR pin enabled; RE3 input pin disabled
  5884   300005                     	org	3145733
  5885   300005  81                 	db	129
  5886                           
  5887                           ;Config register CONFIG4L @ 0x300006
  5888                           ;	Stack Full/Underflow Reset Enable bit
  5889                           ;	STVREN = ON, Stack full/underflow will cause Reset
  5890                           ;	Single-Supply ICSP Enable bit
  5891                           ;	LVP = OFF, Single-Supply ICSP disabled
  5892                           ;	Extended Instruction Set Enable bit
  5893                           ;	XINST = OFF, Instruction set extension and Indexed Addressing mode disabled (Legacy mo
      +                          de)
  5894                           ;	Background Debugger Enable bit
  5895                           ;	DEBUG = 0x1, unprogrammed default
  5896   300006                     	org	3145734
  5897   300006  81                 	db	129
  5898                           
  5899                           ; Padding undefined space
  5900   300007                     	org	3145735
  5901   300007  FF                 	db	255
  5902                           
  5903                           ;Config register CONFIG5L @ 0x300008
  5904                           ;	Code Protection bit
  5905                           ;	CP0 = OFF, Block 0 (000800-003FFFh) not code-protected
  5906                           ;	Code Protection bit
  5907                           ;	CP1 = OFF, Block 1 (004000-007FFFh) not code-protected
  5908                           ;	Code Protection bit
  5909                           ;	CP2 = OFF, Block 2 (008000-00BFFFh) not code-protected
  5910                           ;	Code Protection bit
  5911                           ;	CP3 = OFF, Block 3 (00C000-00FFFFh) not code-protected
  5912   300008                     	org	3145736
  5913   300008  0F                 	db	15
  5914                           
  5915                           ;Config register CONFIG5H @ 0x300009
  5916                           ;	Boot Block Code Protection bit
  5917                           ;	CPB = OFF, Boot block (000000-0007FFh) not code-protected
  5918                           ;	Data EEPROM Code Protection bit
  5919                           ;	CPD = OFF, Data EEPROM not code-protected
  5920   300009                     	org	3145737
  5921   300009  C0                 	db	192
  5922                           
  5923                           ;Config register CONFIG6L @ 0x30000A
  5924                           ;	Write Protection bit
  5925                           ;	WRT0 = OFF, Block 0 (000800-003FFFh) not write-protected
  5926                           ;	Write Protection bit
  5927                           ;	WRT1 = OFF, Block 1 (004000-007FFFh) not write-protected
  5928                           ;	Write Protection bit
  5929                           ;	WRT2 = OFF, Block 2 (008000-00BFFFh) not write-protected
  5930                           ;	Write Protection bit
  5931                           ;	WRT3 = OFF, Block 3 (00C000-00FFFFh) not write-protected
  5932   30000A                     	org	3145738
  5933   30000A  0F                 	db	15
  5934                           
  5935                           ;Config register CONFIG6H @ 0x30000B
  5936                           ;	Configuration Register Write Protection bit
  5937                           ;	WRTC = OFF, Configuration registers (300000-3000FFh) not write-protected
  5938                           ;	Boot Block Write Protection bit
  5939                           ;	WRTB = OFF, Boot Block (000000-0007FFh) not write-protected
  5940                           ;	Data EEPROM Write Protection bit
  5941                           ;	WRTD = OFF, Data EEPROM not write-protected
  5942   30000B                     	org	3145739
  5943   30000B  E0                 	db	224
  5944                           
  5945                           ;Config register CONFIG7L @ 0x30000C
  5946                           ;	Table Read Protection bit
  5947                           ;	EBTR0 = OFF, Block 0 (000800-003FFFh) not protected from table reads executed in other
      +                           blocks
  5948                           ;	Table Read Protection bit
  5949                           ;	EBTR1 = OFF, Block 1 (004000-007FFFh) not protected from table reads executed in other
      +                           blocks
  5950                           ;	Table Read Protection bit
  5951                           ;	EBTR2 = OFF, Block 2 (008000-00BFFFh) not protected from table reads executed in other
      +                           blocks
  5952                           ;	Table Read Protection bit
  5953                           ;	EBTR3 = OFF, Block 3 (00C000-00FFFFh) not protected from table reads executed in other
      +                           blocks
  5954   30000C                     	org	3145740
  5955   30000C  0F                 	db	15
  5956                           
  5957                           ;Config register CONFIG7H @ 0x30000D
  5958                           ;	Boot Block Table Read Protection bit
  5959                           ;	EBTRB = OFF, Boot Block (000000-0007FFh) not protected from table reads executed in ot
      +                          her blocks
  5960   30000D                     	org	3145741
  5961   30000D  40                 	db	64
  5962                           tosu	equ	0xFFF
  5963                           tosh	equ	0xFFE
  5964                           tosl	equ	0xFFD
  5965                           stkptr	equ	0xFFC
  5966                           pclatu	equ	0xFFB
  5967                           pclath	equ	0xFFA
  5968                           pcl	equ	0xFF9
  5969                           tblptru	equ	0xFF8
  5970                           tblptrh	equ	0xFF7
  5971                           tblptrl	equ	0xFF6
  5972                           tablat	equ	0xFF5
  5973                           prodh	equ	0xFF4
  5974                           prodl	equ	0xFF3
  5975                           indf0	equ	0xFEF
  5976                           postinc0	equ	0xFEE
  5977                           postdec0	equ	0xFED
  5978                           preinc0	equ	0xFEC
  5979                           plusw0	equ	0xFEB
  5980                           fsr0h	equ	0xFEA
  5981                           fsr0l	equ	0xFE9
  5982                           wreg	equ	0xFE8
  5983                           indf1	equ	0xFE7
  5984                           postinc1	equ	0xFE6
  5985                           postdec1	equ	0xFE5
  5986                           preinc1	equ	0xFE4
  5987                           plusw1	equ	0xFE3
  5988                           fsr1h	equ	0xFE2
  5989                           fsr1l	equ	0xFE1
  5990                           bsr	equ	0xFE0
  5991                           indf2	equ	0xFDF
  5992                           postinc2	equ	0xFDE
  5993                           postdec2	equ	0xFDD
  5994                           preinc2	equ	0xFDC
  5995                           plusw2	equ	0xFDB
  5996                           fsr2h	equ	0xFDA
  5997                           fsr2l	equ	0xFD9
  5998                           status	equ	0xFD8

Data Sizes:
    Strings     11
    Constant    16
    Data        47
    BSS         153
    Persistent  0
    Stack       0

Auto Spaces:
    Space          Size  Autos    Used
    COMRAM          126     46     123
    BANK0           128      3     126
    BANK1           256      0       0
    BANK2           256      0       0
    BANK3           256      0       0
    BANK4           256      0       0
    BANK5           256      0       0
    BANK6           256      0       0
    BANK7           256      0       0
    BANK8           256      0       0
    BANK9           256      0       0
    BANK10          256      0       0
    BANK11          256      0       0
    BANK12          256      0       0
    BANK13          256      0       0
    BANK14          256      0       0
    BANK15          128      0       0

Pointer List with Targets:

    Adc_Get_conversion_result@adc_obj$ACD_INTERRUPT_HANDLER	PTR FTN()void  size(2) Largest target is 0

    ADC_INIT@adc_obj$ACD_INTERRUPT_HANDLER	PTR FTN()void  size(2) Largest target is 0

    ADC_INTERRUPT_HANDLERF	PTR FTN()void  size(2) Largest target is 1
		 -> NULL(), 

    adc_select_format@adc_obj$ACD_INTERRUPT_HANDLER	PTR FTN()void  size(2) Largest target is 0

    adc_select_Voltage@adc_obj$ACD_INTERRUPT_HANDLER	PTR FTN()void  size(2) Largest target is 0

    capture_is_ready@_ccp$CCP1_INTERRUPT_HANDLER	PTR FTN()void  size(2) Largest target is 0

    capture_is_ready@_ccp$CCP2_INTERRUPT_HANDLER	PTR FTN()void  size(2) Largest target is 0

    capture_read_value@_ccp$CCP1_INTERRUPT_HANDLER	PTR FTN()void  size(2) Largest target is 0

    capture_read_value@_ccp$CCP2_INTERRUPT_HANDLER	PTR FTN()void  size(2) Largest target is 0

    CCP1_INTERRUPT_HANDLERF	PTR FTN()void  size(2) Largest target is 1
		 -> NULL(), 

    CCP2_INTERRUPT_HANDLERF	PTR FTN()void  size(2) Largest target is 1
		 -> NULL(), 

    CCP_DEINIt@_ccp$CCP1_INTERRUPT_HANDLER	PTR FTN()void  size(2) Largest target is 0

    CCP_DEINIt@_ccp$CCP2_INTERRUPT_HANDLER	PTR FTN()void  size(2) Largest target is 0

    CCP_INIt@_ccp$CCP1_INTERRUPT_HANDLER	PTR FTN()void  size(2) Largest target is 0

    CCP_INIt@_ccp$CCP2_INTERRUPT_HANDLER	PTR FTN()void  size(2) Largest target is 0

    ccp_interrupt@_ccp$CCP1_INTERRUPT_HANDLER	PTR FTN()void  size(2) Largest target is 0

    ccp_interrupt@_ccp$CCP2_INTERRUPT_HANDLER	PTR FTN()void  size(2) Largest target is 0

    configue_timer_mode@TMR$TIMER3_INTERRUPT_HANDLER	PTR FTN()void  size(2) Largest target is 0

    configure_mode@_ccp$CCP1_INTERRUPT_HANDLER	PTR FTN()void  size(2) Largest target is 0

    configure_mode@_ccp$CCP2_INTERRUPT_HANDLER	PTR FTN()void  size(2) Largest target is 0

    convert_uint8_to_string@str	PTR unsigned char  size(1) Largest target is 5
		 -> hour_nums(BANK0[5]), hour_nums2(BANK0[5]), minute_nums(BANK0[5]), minute_nums2(BANK0[5]), 
		 -> second_nums(BANK0[5]), second_nums2(BANK0[5]), 

    EUSART_ASYC_Rx_init@_eusa$EUSART_FRAMING_ERROR_INTERRUPT_HANDLER	PTR FTN()void  size(2) Largest target is 0

    EUSART_ASYC_Rx_init@_eusa$EUSART_OVERRUN_ERROR_INTERRUPT_HANDLER	PTR FTN()void  size(2) Largest target is 0

    EUSART_ASYC_Rx_init@_eusa$EUSART_RX_INTERRUPT_HANDLER	PTR FTN()void  size(2) Largest target is 0

    EUSART_ASYC_Rx_init@_eusa$EUSART_TX_INTERRUPT_HANDLER	PTR FTN()void  size(2) Largest target is 0

    EUSART_ASYC_Tx_init@_eusa$EUSART_FRAMING_ERROR_INTERRUPT_HANDLER	PTR FTN()void  size(2) Largest target is 0

    EUSART_ASYC_Tx_init@_eusa$EUSART_OVERRUN_ERROR_INTERRUPT_HANDLER	PTR FTN()void  size(2) Largest target is 0

    EUSART_ASYC_Tx_init@_eusa$EUSART_RX_INTERRUPT_HANDLER	PTR FTN()void  size(2) Largest target is 0

    EUSART_ASYC_Tx_init@_eusa$EUSART_TX_INTERRUPT_HANDLER	PTR FTN()void  size(2) Largest target is 0

    eusart_baudrate_configuration@_eusa$EUSART_FRAMING_ERROR_INTERRUPT_HANDLER	PTR FTN()void  size(2) Largest target is 0

    eusart_baudrate_configuration@_eusa$EUSART_OVERRUN_ERROR_INTERRUPT_HANDLER	PTR FTN()void  size(2) Largest target is 0

    eusart_baudrate_configuration@_eusa$EUSART_RX_INTERRUPT_HANDLER	PTR FTN()void  size(2) Largest target is 0

    eusart_baudrate_configuration@_eusa$EUSART_TX_INTERRUPT_HANDLER	PTR FTN()void  size(2) Largest target is 0

    EUSART_FRAMING_ERROR_INTERRUPT_HANDLERF	PTR FTN()void  size(2) Largest target is 1
		 -> NULL(), 

    EUSART_OVERRUN_ERROR_INTERRUPT_HANDLERF	PTR FTN()void  size(2) Largest target is 1
		 -> NULL(), 

    EUSART_RX_INTERRUPT_HANDLERF	PTR FTN()void  size(2) Largest target is 1
		 -> NULL(), 

    EUSART_TX_INTERRUPT_HANDLERF	PTR FTN()void  size(2) Largest target is 1
		 -> NULL(), 

    f$.$buffer	PTR unsigned char  size(2) Largest target is 0

    f$.$source	PTR const unsigned char  size(2) Largest target is 0

    fputc@fp	PTR struct _IO_FILE size(1) Largest target is 12
		 -> sprintf@f(COMRAM[12]), 

    fputc@fp$.$buffer	PTR unsigned char  size(2) Largest target is 0

    fputc@fp$.$source	PTR const unsigned char  size(2) Largest target is 0

    gpio_pin_direction_intialize@__pin_t	PTR const struct . size(1) Largest target is 6
		 -> lcd_1(BANK0[6]), lcd_1$lcd_pins(BANK0[4]), lcd_1$pin_en(BANK0[1]), lcd_1$pin_Rs(BANK0[1]), 
		 -> led_intalize@obj(COMRAM[1]), relay_initalize@obj(COMRAM[1]), spi_master_mode_configuration@SDI(COMRAM[1]), spi_master_mode_configuration@SDO(COMRAM[1]), 
		 -> spi_master_mode_configuration@SKL(COMRAM[1]), spi_slave_mode_configuration@SDI(COMRAM[1]), spi_slave_mode_configuration@SDO(COMRAM[1]), spi_slave_mode_configuration@SKL(COMRAM[1]), 
		 -> spi_slave_mode_configuration@SS_PIN(COMRAM[1]), 

    gpio_pin_intialize@_pin_t	PTR struct . size(1) Largest target is 6
		 -> lcd_1(BANK0[6]), lcd_1$lcd_pins(BANK0[4]), lcd_1$pin_en(BANK0[1]), lcd_1$pin_Rs(BANK0[1]), 
		 -> led_intalize@obj(COMRAM[1]), relay_initalize@obj(COMRAM[1]), spi_master_mode_configuration@SDI(COMRAM[1]), spi_master_mode_configuration@SDO(COMRAM[1]), 
		 -> spi_master_mode_configuration@SKL(COMRAM[1]), spi_slave_mode_configuration@SDI(COMRAM[1]), spi_slave_mode_configuration@SDO(COMRAM[1]), spi_slave_mode_configuration@SKL(COMRAM[1]), 
		 -> spi_slave_mode_configuration@SS_PIN(COMRAM[1]), 

    gpio_pin_write_logic@_pin_t	PTR const struct . size(1) Largest target is 6
		 -> lcd_1(BANK0[6]), lcd_1$lcd_pins(BANK0[4]), lcd_1$pin_en(BANK0[1]), lcd_1$pin_Rs(BANK0[1]), 
		 -> led_intalize@obj(COMRAM[1]), led_off@obj(COMRAM[1]), led_on@obj(COMRAM[1]), relay_initalize@obj(COMRAM[1]), 
		 -> relay_off@obj(COMRAM[1]), relay_on@obj(COMRAM[1]), spi_master_mode_configuration@SDI(COMRAM[1]), spi_master_mode_configuration@SDO(COMRAM[1]), 
		 -> spi_master_mode_configuration@SKL(COMRAM[1]), spi_slave_mode_configuration@SDI(COMRAM[1]), spi_slave_mode_configuration@SDO(COMRAM[1]), spi_slave_mode_configuration@SKL(COMRAM[1]), 
		 -> spi_slave_mode_configuration@SS_PIN(COMRAM[1]), 

    I2C_INTERRUPT_HANDLERF	PTR FTN()void  size(2) Largest target is 1
		 -> NULL(), 

    I2C_Receive_Overflow_IndicatoR_HANDLERF	PTR FTN()void  size(2) Largest target is 1
		 -> NULL(), 

    I2C_Write_Collision_HANDLERF	PTR FTN()void  size(2) Largest target is 1
		 -> NULL(), 

    INT0_InterruptHandeler	PTR FTN()void  size(2) Largest target is 1
		 -> NULL(), 

    int1$TIMER1_INTERRUPT_HANDLER	PTR FTN()void  size(2) Largest target is 1
		 -> TMR_Isr(), 

    INT1_InterruptHandeler	PTR FTN()void  size(2) Largest target is 1
		 -> NULL(), 

    INT2_InterruptHandeler	PTR FTN()void  size(2) Largest target is 1
		 -> NULL(), 

    Interrupt_INTx_Clear_Flag@init_obj$EXT_InterruptHandler	PTR FTN()void  size(2) Largest target is 0

    Interrupt_INTx_Disable@init_obj$EXT_InterruptHandler	PTR FTN()void  size(2) Largest target is 0

    Interrupt_INTx_Edge_init@init_obj$EXT_InterruptHandler	PTR FTN()void  size(2) Largest target is 0

    Interrupt_INTx_Enable@init_obj$EXT_InterruptHandler	PTR FTN()void  size(2) Largest target is 0

    Interrupt_INTx_Pin_init@init_obj$EXT_InterruptHandler	PTR FTN()void  size(2) Largest target is 0

    Interrupt_INTx_SetInterruptHandeler@init_obj$EXT_InterruptHandler	PTR FTN()void  size(2) Largest target is 0

    Interrupt_RBx_Init@init_obj$EXT_InterruptHandler_High	PTR FTN()void  size(2) Largest target is 0

    Interrupt_RBx_Init@init_obj$EXT_InterruptHandler_Low	PTR FTN()void  size(2) Largest target is 0

    Interrupt_RBx_Pin_init@init_obj$EXT_InterruptHandler_High	PTR FTN()void  size(2) Largest target is 0

    Interrupt_RBx_Pin_init@init_obj$EXT_InterruptHandler_Low	PTR FTN()void  size(2) Largest target is 0

    lat_registers	PTR volatile unsigned char [5] size(2) Largest target is 1
		 -> LATA(BITBIGSFRlllll[1]), LATB(BITBIGSFRllllh[1]), LATC(BITBIGSFRllllh[1]), LATD(BITBIGSFRllllh[1]), 
		 -> LATE(BITBIGSFRllllh[1]), 

    lcd_4bit_initialize@lcd	PTR const struct . size(1) Largest target is 6
		 -> lcd_1(BANK0[6]), 

    lcd_4bit_send_command@lcd	PTR const struct . size(1) Largest target is 6
		 -> lcd_1(BANK0[6]), 

    lcd_4bit_send_data_char@lcd	PTR const struct . size(1) Largest target is 6
		 -> lcd_1(BANK0[6]), 

    lcd_4bit_send_data_char_posit@lcd	PTR const struct . size(1) Largest target is 6
		 -> lcd_1(BANK0[6]), 

    lcd_4bit_send_data_string_posit@data	PTR unsigned char  size(2) Largest target is 8
		 -> hour_nums(BANK0[5]), hour_nums2(BANK0[5]), minute_nums(BANK0[5]), minute_nums2(BANK0[5]), 
		 -> second_nums(BANK0[5]), second_nums2(BANK0[5]), STR_4(CODE[8]), 

    lcd_4bit_send_data_string_posit@lcd	PTR const struct . size(1) Largest target is 6
		 -> lcd_1(BANK0[6]), 

    lcd_send_4bit_command_data@lcd	PTR const struct . size(1) Largest target is 6
		 -> lcd_1(BANK0[6]), 

    lcd_send_4bit_enable@lcd	PTR const struct . size(1) Largest target is 6
		 -> lcd_1(BANK0[6]), 

    lcd_set_cursor_4bit@lcd	PTR const struct . size(1) Largest target is 6
		 -> lcd_1(BANK0[6]), 

    memset@dest	PTR void  size(1) Largest target is 5
		 -> hour_nums(BANK0[5]), hour_nums2(BANK0[5]), minute_nums(BANK0[5]), minute_nums2(BANK0[5]), 
		 -> second_nums(BANK0[5]), second_nums2(BANK0[5]), 

    memset@p	PTR unsigned char  size(1) Largest target is 5
		 -> hour_nums(BANK0[5]), hour_nums2(BANK0[5]), minute_nums(BANK0[5]), minute_nums2(BANK0[5]), 
		 -> second_nums(BANK0[5]), second_nums2(BANK0[5]), 

    MODE_configure@hal_timer1$F3917@TMR	PTR const struct . size(1) Largest target is 7
		 -> int1(BANK0[7]), 

    MODE_configure@hal_timer1$F3917@TMR$TIMER1_INTERRUPT_HANDLER	PTR FTN()void  size(2) Largest target is 1
		 -> TMR_Isr(), 

    MODE_configure@TMR$TIMER0_INTERRUPT_HANDLER	PTR FTN()void  size(2) Largest target is 0

    MSSP_12C_Interrupt_configuration@i2c$I2C_INTERRUPT_HANDLER	PTR FTN()void  size(2) Largest target is 0

    MSSP_12C_Interrupt_configuration@i2c$I2C_Receive_Overflow_IndicatoR_HANDLER	PTR FTN()void  size(2) Largest target is 0

    MSSP_12C_Interrupt_configuration@i2c$I2C_Write_Collision_HANDLER	PTR FTN()void  size(2) Largest target is 0

    MSSP_I2c_MODE_Init@i2c$I2C_INTERRUPT_HANDLER	PTR FTN()void  size(2) Largest target is 0

    MSSP_I2c_MODE_Init@i2c$I2C_Receive_Overflow_IndicatoR_HANDLER	PTR FTN()void  size(2) Largest target is 0

    MSSP_I2c_MODE_Init@i2c$I2C_Write_Collision_HANDLER	PTR FTN()void  size(2) Largest target is 0

    MSSP_SPI_INTERRUPT_HANDLERF	PTR FTN()void  size(2) Largest target is 1
		 -> NULL(), 

    OSC_configure@TMR	PTR const struct . size(1) Largest target is 7
		 -> int1(BANK0[7]), 

    OSC_configure@TMR$TIMER1_INTERRUPT_HANDLER	PTR FTN()void  size(2) Largest target is 1
		 -> TMR_Isr(), 

    port_registers	PTR volatile unsigned char [5] size(2) Largest target is 1
		 -> PORTA(BITBIGSFRlllll[1]), PORTB(BITBIGSFRlllll[1]), PORTC(BITBIGSFRlllll[1]), PORTD(BITBIGSFRlllll[1]), 
		 -> PORTE(BITBIGSFRlllll[1]), 

    Prescaler_configure@TMR$TIMER0_INTERRUPT_HANDLER	PTR FTN()void  size(2) Largest target is 0

    RB4_InterruptHandeler_High	PTR FTN()void  size(2) Largest target is 1
		 -> NULL(), 

    RB4_InterruptHandeler_Low	PTR FTN()void  size(2) Largest target is 1
		 -> NULL(), 

    RB5_InterruptHandeler_High	PTR FTN()void  size(2) Largest target is 1
		 -> NULL(), 

    RB5_InterruptHandeler_Low	PTR FTN()void  size(2) Largest target is 1
		 -> NULL(), 

    RB6_InterruptHandeler_High	PTR FTN()void  size(2) Largest target is 1
		 -> NULL(), 

    RB6_InterruptHandeler_Low	PTR FTN()void  size(2) Largest target is 1
		 -> NULL(), 

    RB7_InterruptHandeler_High	PTR FTN()void  size(2) Largest target is 1
		 -> NULL(), 

    RB7_InterruptHandeler_Low	PTR FTN()void  size(2) Largest target is 1
		 -> NULL(), 

    register_configure@hal_timer1$F3923@TMR	PTR const struct . size(1) Largest target is 7
		 -> int1(BANK0[7]), 

    register_configure@hal_timer1$F3923@TMR$TIMER1_INTERRUPT_HANDLER	PTR FTN()void  size(2) Largest target is 1
		 -> TMR_Isr(), 

    register_configure@hal_timer3$F4288@TMR$TIMER3_INTERRUPT_HANDLER	PTR FTN()void  size(2) Largest target is 0

    register_configure@TMR$TIMER0_INTERRUPT_HANDLER	PTR FTN()void  size(2) Largest target is 0

    S1081$CCP1_INTERRUPT_HANDLER	PTR FTN()void  size(2) Largest target is 0

    S1081$CCP2_INTERRUPT_HANDLER	PTR FTN()void  size(2) Largest target is 0

    S1662$EUSART_FRAMING_ERROR_INTERRUPT_HANDLER	PTR FTN()void  size(2) Largest target is 0

    S1662$EUSART_OVERRUN_ERROR_INTERRUPT_HANDLER	PTR FTN()void  size(2) Largest target is 0

    S1662$EUSART_RX_INTERRUPT_HANDLER	PTR FTN()void  size(2) Largest target is 0

    S1662$EUSART_TX_INTERRUPT_HANDLER	PTR FTN()void  size(2) Largest target is 0

    S2291$EXT_InterruptHandler	PTR FTN()void  size(2) Largest target is 0

    S2329$EXT_InterruptHandler_High	PTR FTN()void  size(2) Largest target is 0

    S2329$EXT_InterruptHandler_Low	PTR FTN()void  size(2) Largest target is 0

    S2925$I2C_INTERRUPT_HANDLER	PTR FTN()void  size(2) Largest target is 0

    S2925$I2C_Receive_Overflow_IndicatoR_HANDLER	PTR FTN()void  size(2) Largest target is 0

    S2925$I2C_Write_Collision_HANDLER	PTR FTN()void  size(2) Largest target is 0

    S3350$MSSP_SPI_INTERRUPT_HANDLER	PTR FTN()void  size(2) Largest target is 0

    S3686$TIMER0_INTERRUPT_HANDLER	PTR FTN()void  size(2) Largest target is 0

    S3856$TIMER1_INTERRUPT_HANDLER	PTR FTN()void  size(2) Largest target is 1
		 -> TMR_Isr(), 

    S4104$TIMER2_INTERRUPT_HANDLER	PTR FTN()void  size(2) Largest target is 0

    S4238$TIMER3_INTERRUPT_HANDLER	PTR FTN()void  size(2) Largest target is 0

    S4955$buffer	PTR unsigned char  size(2) Largest target is 0

    S4955$source	PTR const unsigned char  size(2) Largest target is 0

    S659$ACD_INTERRUPT_HANDLER	PTR FTN()void  size(2) Largest target is 0

    selected_timer@_ccp$CCP1_INTERRUPT_HANDLER	PTR FTN()void  size(2) Largest target is 0

    selected_timer@_ccp$CCP2_INTERRUPT_HANDLER	PTR FTN()void  size(2) Largest target is 0

    sp__memset	PTR void  size(1) Largest target is 5
		 -> hour_nums(BANK0[5]), hour_nums2(BANK0[5]), minute_nums(BANK0[5]), minute_nums2(BANK0[5]), 
		 -> second_nums(BANK0[5]), second_nums2(BANK0[5]), 

    Spi_Init@spi$MSSP_SPI_INTERRUPT_HANDLER	PTR FTN()void  size(2) Largest target is 0

    spi_interrupt_configuration@spi$MSSP_SPI_INTERRUPT_HANDLER	PTR FTN()void  size(2) Largest target is 0

    spi_slave_mode_configuration@spi$MSSP_SPI_INTERRUPT_HANDLER	PTR FTN()void  size(2) Largest target is 0

    sprintf@ap	PTR void [1] size(1) Largest target is 2
		 -> ?_sprintf(COMRAM[2]), 

    sprintf@fmt	PTR const unsigned char  size(1) Largest target is 3
		 -> STR_1(CODE[3]), STR_2(CODE[3]), STR_3(CODE[3]), 

    sprintf@s	PTR unsigned char  size(1) Largest target is 6
		 -> convert_uint16_to_string@temp(COMRAM[6]), hour_nums(BANK0[5]), hour_nums2(BANK0[5]), minute_nums(BANK0[5]), 
		 -> minute_nums2(BANK0[5]), second_nums(BANK0[5]), second_nums2(BANK0[5]), 

    TIMER0_INTERRUPPT	PTR FTN()void  size(2) Largest target is 1
		 -> NULL(), 

    TIMER1_INTERRUPPT_HANDLERF	PTR FTN()void  size(2) Largest target is 1
		 -> TMR_Isr(), NULL(), 

    TIMER3_INTERRUPT_HANDLERF	PTR FTN()void  size(2) Largest target is 1
		 -> NULL(), 

    TMR0_Init@TMR$TIMER0_INTERRUPT_HANDLER	PTR FTN()void  size(2) Largest target is 0

    TMR1_Init@TMR	PTR const struct . size(1) Largest target is 7
		 -> int1(BANK0[7]), 

    TMR1_Init@TMR$TIMER1_INTERRUPT_HANDLER	PTR FTN()void  size(2) Largest target is 1
		 -> TMR_Isr(), 

    TMR2_Init@TMR$TIMER2_INTERRUPT_HANDLER	PTR FTN()void  size(2) Largest target is 0

    TMR2_INTERRUPT_HANDLER	PTR FTN()void  size(2) Largest target is 1
		 -> NULL(), 

    TMR3_Init@TMR$TIMER3_INTERRUPT_HANDLER	PTR FTN()void  size(2) Largest target is 0

    tris_registers	PTR volatile unsigned char [5] size(2) Largest target is 1
		 -> TRISA(BITBIGSFRlllll[1]), TRISB(ABS[1]), TRISC(SFR[1]), TRISD(ABS[1]), 
		 -> TRISE(ABS[1]), 

    vfpfcnvrt@ap	PTR PTR void  size(1) Largest target is 1
		 -> sprintf@ap(COMRAM[1]), 

    vfpfcnvrt@cp	PTR unsigned char  size(1) Largest target is 3
		 -> STR_1(CODE[3]), STR_2(CODE[3]), STR_3(CODE[3]), 

    vfpfcnvrt@fmt	PTR PTR unsigned char  size(1) Largest target is 1
		 -> vfprintf@cfmt(COMRAM[1]), 

    vfpfcnvrt@fp	PTR struct _IO_FILE size(1) Largest target is 12
		 -> sprintf@f(COMRAM[12]), 

    vfprintf@ap	PTR PTR void  size(1) Largest target is 1
		 -> sprintf@ap(COMRAM[1]), 

    vfprintf@cfmt	PTR unsigned char  size(1) Largest target is 3
		 -> STR_1(CODE[3]), STR_2(CODE[3]), STR_3(CODE[3]), 

    vfprintf@fmt	PTR const unsigned char  size(1) Largest target is 3
		 -> STR_1(CODE[3]), STR_2(CODE[3]), STR_3(CODE[3]), 

    vfprintf@fp	PTR struct _IO_FILE size(1) Largest target is 12
		 -> sprintf@f(COMRAM[12]), 


Critical Paths under _main in COMRAM

    _main->_convert_uint8_to_string
    _lcd_4bit_send_data_string_posit->_lcd_set_cursor_4bit
    _lcd_4bit_send_data_char_posit->_lcd_set_cursor_4bit
    _lcd_set_cursor_4bit->_lcd_4bit_send_command
    _lcd_4bit_send_data_char->_lcd_send_4bit_command_data
    _interrupt_init1->_TMR1_Init
    _TMR1_Init->_MODE_configure@hal_timer1$F3917
    _TMR1_Init->_OSC_configure
    _TMR1_Init->_register_configure@hal_timer1$F3923
    _convert_uint8_to_string->_sprintf
    _sprintf->_vfprintf
    _vfprintf->_vfpfcnvrt
    _vfpfcnvrt->_abs
    _abs->___awmod
    _app_initialize->_lcd_4bit_initialize
    _lcd_4bit_initialize->_lcd_4bit_send_command
    _lcd_4bit_send_command->_lcd_send_4bit_command_data
    _lcd_send_4bit_enable->_gpio_pin_write_logic
    _lcd_send_4bit_command_data->_gpio_pin_write_logic
    _gpio_pin_intialize->_gpio_pin_write_logic

Critical Paths under _InterruptManager in COMRAM

    _InterruptManager->_RB4_ISR
    _InterruptManager->_RB5_ISR
    _InterruptManager->_RB6_ISR
    _InterruptManager->_RB7_ISR

Critical Paths under _main in BANK0

    _main->_convert_uint8_to_string

Critical Paths under _InterruptManager in BANK0

    None.

Critical Paths under _main in BANK1

    None.

Critical Paths under _InterruptManager in BANK1

    None.

Critical Paths under _main in BANK2

    None.

Critical Paths under _InterruptManager in BANK2

    None.

Critical Paths under _main in BANK3

    None.

Critical Paths under _InterruptManager in BANK3

    None.

Critical Paths under _main in BANK4

    None.

Critical Paths under _InterruptManager in BANK4

    None.

Critical Paths under _main in BANK5

    None.

Critical Paths under _InterruptManager in BANK5

    None.

Critical Paths under _main in BANK6

    None.

Critical Paths under _InterruptManager in BANK6

    None.

Critical Paths under _main in BANK7

    None.

Critical Paths under _InterruptManager in BANK7

    None.

Critical Paths under _main in BANK8

    None.

Critical Paths under _InterruptManager in BANK8

    None.

Critical Paths under _main in BANK9

    None.

Critical Paths under _InterruptManager in BANK9

    None.

Critical Paths under _main in BANK10

    None.

Critical Paths under _InterruptManager in BANK10

    None.

Critical Paths under _main in BANK11

    None.

Critical Paths under _InterruptManager in BANK11

    None.

Critical Paths under _main in BANK12

    None.

Critical Paths under _InterruptManager in BANK12

    None.

Critical Paths under _main in BANK13

    None.

Critical Paths under _InterruptManager in BANK13

    None.

Critical Paths under _main in BANK14

    None.

Critical Paths under _InterruptManager in BANK14

    None.

Critical Paths under _main in BANK15

    None.

Critical Paths under _InterruptManager in BANK15

    None.

Call Graph Tables:

 ---------------------------------------------------------------------------------
 (Depth) Function   	        Calls       Base Space   Used Autos Params    Refs
 ---------------------------------------------------------------------------------
 (0) _main                                                 2     2      0  131488
                                              1 BANK0      2     2      0
                            ___awdiv
                            ___awmod
                     _app_initialize
            _convert_uint8_to_string
                    _interrupt_init1
      _lcd_4bit_send_data_char_posit
    _lcd_4bit_send_data_string_posit
 ---------------------------------------------------------------------------------
 (1) _lcd_4bit_send_data_string_posit                      6     1      5   45436
                                             23 COMRAM     6     1      5
            _lcd_4bit_send_data_char
                _lcd_set_cursor_4bit
 ---------------------------------------------------------------------------------
 (1) _lcd_4bit_send_data_char_posit                        5     1      4   43962
                                             23 COMRAM     5     1      4
            _lcd_4bit_send_data_char
                _lcd_set_cursor_4bit
 ---------------------------------------------------------------------------------
 (2) _lcd_set_cursor_4bit                                  6     3      3   22572
                                             17 COMRAM     6     3      3
              _lcd_4bit_send_command
 ---------------------------------------------------------------------------------
 (2) _lcd_4bit_send_data_char                              3     1      2   20081
                                             14 COMRAM     3     1      2
               _gpio_pin_write_logic
         _lcd_send_4bit_command_data
               _lcd_send_4bit_enable
 ---------------------------------------------------------------------------------
 (1) _interrupt_init1                                      0     0      0     900
                          _TMR1_Init
 ---------------------------------------------------------------------------------
 (2) _TMR1_Init                                            4     3      1     900
                                              4 COMRAM     3     2      1
    _MODE_configure@hal_timer1$F3917
                      _OSC_configure
_register_configure@hal_timer1$F3923
 ---------------------------------------------------------------------------------
 (3) _register_configure@hal_timer1$F3923                  1     0      1     152
                                              3 COMRAM     1     0      1
 ---------------------------------------------------------------------------------
 (3) _OSC_configure                                        1     0      1     152
                                              3 COMRAM     1     0      1
 ---------------------------------------------------------------------------------
 (3) _MODE_configure@hal_timer1$F3917                      1     0      1     214
                                              3 COMRAM     1     0      1
 ---------------------------------------------------------------------------------
 (1) _convert_uint8_to_string                              3     2      1    7421
                                             45 COMRAM     1     0      1
                                              0 BANK0      1     1      0
                             _memset
                            _sprintf
 ---------------------------------------------------------------------------------
 (2) _sprintf                                             19    15      4    5797
                                             28 COMRAM    17    13      4
                           _vfprintf
 ---------------------------------------------------------------------------------
 (3) _vfprintf                                             4     1      3    4951
                                             24 COMRAM     4     1      3
                          _vfpfcnvrt
 ---------------------------------------------------------------------------------
 (4) _vfpfcnvrt                                           11     8      3    4490
                                             13 COMRAM    11     8      3
                            ___awdiv
                            ___awmod
                                _abs
                              _fputc
 ---------------------------------------------------------------------------------
 (5) _fputc                                                8     5      3     957
                                              3 COMRAM     8     5      3
                              _putch
 ---------------------------------------------------------------------------------
 (6) _putch                                                1     1      0       0
 ---------------------------------------------------------------------------------
 (5) _abs                                                  4     2      2     183
                                              9 COMRAM     4     2      2
                            ___awmod (ARG)
 ---------------------------------------------------------------------------------
 (5) ___awmod                                              6     2      4    1153
                                              3 COMRAM     6     2      4
 ---------------------------------------------------------------------------------
 (5) ___awdiv                                              8     4      4    1165
                                              3 COMRAM     8     4      4
 ---------------------------------------------------------------------------------
 (2) _memset                                               6     1      5     947
                                              3 COMRAM     6     1      5
 ---------------------------------------------------------------------------------
 (1) _app_initialize                                       0     0      0   31247
                _lcd_4bit_initialize
 ---------------------------------------------------------------------------------
 (2) _lcd_4bit_initialize                                  4     3      1   31247
                                             17 COMRAM     4     3      1
                 _gpio_pin_intialize
              _lcd_4bit_send_command
 ---------------------------------------------------------------------------------
 (3) _lcd_4bit_send_command                                3     1      2   21701
                                             14 COMRAM     3     1      2
               _gpio_pin_write_logic
         _lcd_send_4bit_command_data
               _lcd_send_4bit_enable
 ---------------------------------------------------------------------------------
 (4) _lcd_send_4bit_enable                                 2     1      1    6336
                                             11 COMRAM     2     1      1
               _gpio_pin_write_logic
 ---------------------------------------------------------------------------------
 (4) _lcd_send_4bit_command_data                           4     2      2    6888
                                             11 COMRAM     3     1      2
               _gpio_pin_write_logic
 ---------------------------------------------------------------------------------
 (3) _gpio_pin_intialize                                   3     2      1    8902
                                             11 COMRAM     3     2      1
       _gpio_pin_direction_intialize
               _gpio_pin_write_logic
 ---------------------------------------------------------------------------------
 (5) _gpio_pin_write_logic                                 8     6      2    5837
                                              3 COMRAM     8     6      2
 ---------------------------------------------------------------------------------
 (4) _gpio_pin_direction_intialize                         7     6      1     797
                                              3 COMRAM     7     6      1
 ---------------------------------------------------------------------------------
 Estimated maximum stack depth 6
 ---------------------------------------------------------------------------------
 (Depth) Function   	        Calls       Base Space   Used Autos Params    Refs
 ---------------------------------------------------------------------------------
 (7) _InterruptManager                                     2     2      0     120
                                              1 COMRAM     2     2      0
                            _ADC_ISR
                           _CCP1_ISR
                           _CCP2_ISR
                  _EUSART_RX_ASY_ISR
                  _EUSART_TX_ASY_ISR
              _I2C_BUS_COLLISION_ISR
                  _I2C_MODULE_TR_ISR
                           _INT0_ISR
                           _INT1_ISR
                           _INT2_ISR
                       _MSSP_Spi_ISR
                            _RB4_ISR
                            _RB5_ISR
                            _RB6_ISR
                            _RB7_ISR
                           _TMR0_ISR
                           _TMR1_ISR
                           _TMR2_ISR
                           _TMR3_ISR
 ---------------------------------------------------------------------------------
 (8) _TMR3_ISR                                             0     0      0       0
 ---------------------------------------------------------------------------------
 (8) _TMR2_ISR                                             0     0      0       0
 ---------------------------------------------------------------------------------
 (8) _TMR1_ISR                                             0     0      0       0
                                NULL *
                            _TMR_Isr *
 ---------------------------------------------------------------------------------
 (9) _TMR_Isr                                              0     0      0       0
 ---------------------------------------------------------------------------------
 (9) NULL(Fake)                                            0     0      0       0
 ---------------------------------------------------------------------------------
 (8) _TMR0_ISR                                             0     0      0       0
 ---------------------------------------------------------------------------------
 (8) _RB7_ISR                                              1     1      0      30
                                              0 COMRAM     1     1      0
 ---------------------------------------------------------------------------------
 (8) _RB6_ISR                                              1     1      0      30
                                              0 COMRAM     1     1      0
 ---------------------------------------------------------------------------------
 (8) _RB5_ISR                                              1     1      0      30
                                              0 COMRAM     1     1      0
 ---------------------------------------------------------------------------------
 (8) _RB4_ISR                                              1     1      0      30
                                              0 COMRAM     1     1      0
 ---------------------------------------------------------------------------------
 (8) _MSSP_Spi_ISR                                         0     0      0       0
 ---------------------------------------------------------------------------------
 (8) _INT2_ISR                                             0     0      0       0
 ---------------------------------------------------------------------------------
 (8) _INT1_ISR                                             0     0      0       0
 ---------------------------------------------------------------------------------
 (8) _INT0_ISR                                             0     0      0       0
 ---------------------------------------------------------------------------------
 (8) _I2C_MODULE_TR_ISR                                    0     0      0       0
 ---------------------------------------------------------------------------------
 (8) _I2C_BUS_COLLISION_ISR                                0     0      0       0
 ---------------------------------------------------------------------------------
 (8) _EUSART_TX_ASY_ISR                                    0     0      0       0
 ---------------------------------------------------------------------------------
 (8) _EUSART_RX_ASY_ISR                                    0     0      0       0
 ---------------------------------------------------------------------------------
 (8) _CCP2_ISR                                             0     0      0       0
 ---------------------------------------------------------------------------------
 (8) _CCP1_ISR                                             0     0      0       0
 ---------------------------------------------------------------------------------
 (8) _ADC_ISR                                              0     0      0       0
 ---------------------------------------------------------------------------------
 Estimated maximum stack depth 9
 ---------------------------------------------------------------------------------

 Call Graph Graphs:

 _main (ROOT)
   ___awdiv
   ___awmod
   _app_initialize
     _lcd_4bit_initialize
       _gpio_pin_intialize
         _gpio_pin_direction_intialize
         _gpio_pin_write_logic
       _lcd_4bit_send_command
         _gpio_pin_write_logic
         _lcd_send_4bit_command_data
           _gpio_pin_write_logic
         _lcd_send_4bit_enable
           _gpio_pin_write_logic
   _convert_uint8_to_string
     _memset
     _sprintf
       _vfprintf
         _vfpfcnvrt
           ___awdiv
           ___awmod
           _abs
             ___awmod (ARG)
           _fputc
             _putch
   _interrupt_init1
     _TMR1_Init
       _MODE_configure@hal_timer1$F3917
       _OSC_configure
       _register_configure@hal_timer1$F3923
   _lcd_4bit_send_data_char_posit
     _lcd_4bit_send_data_char
       _gpio_pin_write_logic
       _lcd_send_4bit_command_data
       _lcd_send_4bit_enable
     _lcd_set_cursor_4bit
       _lcd_4bit_send_command
   _lcd_4bit_send_data_string_posit
     _lcd_4bit_send_data_char
     _lcd_set_cursor_4bit

 _InterruptManager (ROOT)
   _ADC_ISR
   _CCP1_ISR
   _CCP2_ISR
   _EUSART_RX_ASY_ISR
   _EUSART_TX_ASY_ISR
   _I2C_BUS_COLLISION_ISR
   _I2C_MODULE_TR_ISR
   _INT0_ISR
   _INT1_ISR
   _INT2_ISR
   _MSSP_Spi_ISR
   _RB4_ISR
   _RB5_ISR
   _RB6_ISR
   _RB7_ISR
   _TMR0_ISR
   _TMR1_ISR
     NULL(Fake) *
     _TMR_Isr *
   _TMR2_ISR
   _TMR3_ISR

 Address spaces:
Name               Size   Autos  Total    Cost      Usage
BIGRAM             F7F      0       0      48        0.0%
EEDATA             400      0       0       0        0.0%
BITBANK14          100      0       0      32        0.0%
BANK14             100      0       0      33        0.0%
BITBANK13          100      0       0      30        0.0%
BANK13             100      0       0      31        0.0%
BITBANK12          100      0       0      28        0.0%
BANK12             100      0       0      29        0.0%
BITBANK11          100      0       0      26        0.0%
BANK11             100      0       0      27        0.0%
BITBANK10          100      0       0      24        0.0%
BANK10             100      0       0      25        0.0%
BITBANK9           100      0       0      22        0.0%
BANK9              100      0       0      23        0.0%
BITBANK8           100      0       0      20        0.0%
BANK8              100      0       0      21        0.0%
BITBANK7           100      0       0      18        0.0%
BANK7              100      0       0      19        0.0%
BITBANK6           100      0       0      16        0.0%
BANK6              100      0       0      17        0.0%
BITBANK5           100      0       0      14        0.0%
BANK5              100      0       0      15        0.0%
BITBANK4           100      0       0      12        0.0%
BANK4              100      0       0      13        0.0%
BITBANK3           100      0       0      10        0.0%
BANK3              100      0       0      11        0.0%
BITBANK2           100      0       0       8        0.0%
BANK2              100      0       0       9        0.0%
BITBANK1           100      0       0       6        0.0%
BANK1              100      0       0       7        0.0%
BITBANK15           80      0       0      34        0.0%
BANK15              80      0       0      35        0.0%
BITBANK0            80      0       0       4        0.0%
BANK0               80      3      7E       5       98.4%
BITCOMRAM           7E      0       0       0        0.0%
COMRAM              7E     2E      7B       1       97.6%
BITBIGSFRhlhlhh     18      0       0      37        0.0%
BITBIGSFRhh          D      0       0      36        0.0%
BITBIGSFRlllhh       6      0       0      44        0.0%
BITBIGSFRhlhlhh      5      0       0      38        0.0%
BITBIGSFRllhllh      4      0       0      41        0.0%
BITBIGSFRllllh       4      0       0      45        0.0%
BITBIGSFRllhllh      4      0       0      42        0.0%
BITBIGSFRlllll       4      0       0      46        0.0%
BITBIGSFRhlhlhh      1      0       0      39        0.0%
BITBIGSFRllhllh      1      0       0      40        0.0%
BITBIGSFRllhlll      1      0       0      43        0.0%
BIGSFR               0      0       0     200        0.0%
BITSFR               0      0       0     200        0.0%
SFR                  0      0       0     200        0.0%
STACK                0      0       0       2        0.0%
NULL                 0      0       0       0        0.0%
ABS                  0      0      F9      47        0.0%
DATA                 0      0      F9       3        0.0%
CODE                 0      0       0       0        0.0%


Microchip Technology PIC18 Macro Assembler V2.45 build 20230818022343 
Symbol Table                                                                                   Fri May 17 22:33:07 2024

                         ??_InterruptManager 0044                  lcd_4bit_send_data_char@data 0052  
                      _I2C_BUS_COLLISION_ISR 2484                                  _SSPSTATbits 0FC7  
                                         l71 1AF6                                           l81 20E4  
                                         l76 2140                                           l86 2240  
                               ___awdiv@sign 004B                                          l102 1EE4  
                                        l200 1E4E                                          l160 2184  
                                        l180 1FC8                                          l190 2204  
                                        l817 1908                                          l836 1A18  
                                        l857 2088                    _RB5_InterruptHandeler_Low 0017  
    _I2C_Receive_Overflow_IndicatoR_HANDLERF 00B0                                          _abs 2320  
                            __end_of_ADC_ISR 2498                                          _ret 0039  
                               ___awmod@sign 004B                                          tosl 0FFD  
                                        wreg 0FE8                                   _TXSTA1bits 0FAC  
                            ??_OSC_configure 0047                                  led_on@F3059 0041  
                           ??_app_initialize 0058                              __end_of_RB4_ISR 2436  
                            __end_of_RB5_ISR 241C                              __end_of_RB6_ISR 2402  
                            __end_of_RB7_ISR 23E8                      __end_of_interrupt_init1 23AA  
                                       l2010 1BBA                                         ?_abs 004C  
                                       l2023 1C6A                                         l1610 22B4  
                                       l1603 227A                                         l2501 17E2  
                                       l2511 233A                                         l2514 2352  
                                       l2507 21C4                                         l1563 1D2A  
                                       l1565 1DB2                                         l2526 1D14  
                                       l1590 1F3C                                         l1742 23A8  
                                       l2463 231E                                         l2456 2382  
                                       l2537 2498                                         l1596 1F5A  
                                       l1776 2462                                         l7301 1AFC  
                                       l7311 1B2C                                         l7303 1B0A  
                                       l7401 1818                                         l7321 1B5A  
                                       l7313 1B30                                         l7305 1B12  
                                       l7403 1820                                         l7411 1906  
                                       l7331 1B8E                                         l7323 1B68  
                                       l7315 1B38                                         l7307 1B16  
                                       l7405 1876                                         l7501 205C  
                                       l7421 1F6C                                         l7333 1B94  
                                       l7325 1B6E                                         l7317 1B4A  
                                       l7309 1B24                                         l7503 2064  
                                       l7423 1F74                                         l7431 21C6  
                                       l7511 20F6                                         l7327 1B84  
                                       l7319 1B52                                         l7335 1B9A  
                                       l7351 1BDA                                         l7343 1BBC  
                                       l7409 18C6                                         l7281 193E  
                                       l7505 2086                                         l7425 1FC6  
                                       l7441 21FE                                         l7433 21D6  
                                       l7513 20FE                                         l7337 1BAA  
                                       l7329 1B8C                                         l7361 1C12  
                                       l7353 1BE8                                         l7345 1BC0  
                                       l7521 1EFE                                         l7283 1946  
                                       l7291 1A16                                         l7427 1FC6  
                                       l7419 1F5C                                         l7443 2202  
                                       l7435 21DE                                         l7515 213E  
                                       l7339 1BB2                                         l7363 1C20  
                                       l7371 1C4A                                         l7355 1BF0  
                                       l7347 1BCE                                         l7451 164E  
                                       l7523 1F00                                         l7531 1F40  
                                       l7603 208A                                         l7285 1996  
                                       l7277 190A                                         l7437 21EA  
                                       l7509 20E6                                         l7373 1C5A  
                                       l7365 1C36                                         l7357 1C02  
                                       l7349 1BD6                                         l7381 1C7C  
                                       l7461 16A6                                         l7453 165C  
                                       l7533 1F58                                         l7525 1F18  
                                       l7541 2278                                         l7701 1D16  
                                       l7605 209A                                         l7621 1DE2  
                                       l7613 1DB4                                         l7279 191E  
                                       l7439 21F2                                         l7375 1C62  
                                       l7367 1C3E                                         l7359 1C0A  
                                       l7383 1C8C                                         l7471 172C  
                                       l7463 16BE                                         l7455 1660  
                                       l7447 1622                                         l7551 2186  
                                       l7527 1F1E                                         l7519 1EE6  
                                       l7543 227C                                         l7535 2242  
                                       l7711 1D7A                                         l7703 1D26  
                                       l7607 20A2                                         l7623 1DF6  
                                       l7615 1DB4                                         l8431 1438  
                                       l7289 19EC                                         l7561 1A1A  
                                       l7369 1C44                                         l7393 2320  
                                       l7385 1C96                                         l7481 1780  
                                       l7473 173E                                         l7465 16C8  
                                       l7457 166A                                         l7449 1646  
                                       l7553 218E                                         l7529 1F36  
                                       l7545 2294                                         l7537 225A  
                                       l7721 1DAC                                         l7713 1D88  
                                       l7705 1D2C                                         l7609 20E2  
                                       l7625 1E0A                                         l7617 1DBA  
                                       l8441 1472                                         l8433 143C  
                                       l7563 1A2E                                         l7299 1AF8  
                                       l7395 232E                                         l7387 1CB2  
                                       l7379 1C6C                                         l7483 179A  
                                       l7475 174E                                         l7467 16E0  
                                       l7459 1688                                         l7491 17BE  
                                       l7555 219E                                         l7811 2146  
                                       l7547 229A                                         l7539 2260  
                                       l7723 1DAE                                         l7715 1D9A  
                                       l7707 1D44                                         l7619 1DCE  
                                       l7627 1E12                                         l7731 2216  
                                       l8451 14CE                                         l8443 148A  
                                       l8435 144E                                         l7397 17E4  
                                       l7581 1A76                                         l7573 1A4A  
                                       l7565 1A32                                         l7389 1CE4  
                                       l7477 175E                                         l7485 179C  
                                       l7469 1710                                         l7557 21BC  
                                       l7813 2156                                         l7549 22B2  
                                       l7725 1DB0                                         l7717 1D9C  
                                       l7709 1D5E                                         l7821 2384  
                                       l7629 1E4C                                         l7733 221E  
                                       l7741 1E60                                         l8461 151C  
                                       l8453 14D8                                         l8445 1494  
                                       l8437 1450                                         l8429 1434  
                                       l7399 17F8                                         l7591 1ABA  
                                       l7583 1A82                                         l7575 1A56  
                                       l7567 1A46                                         l7479 176E  
                                       l7487 17B2                                         l7815 215A  
                                       l7719 1D9E                                         l7831 239E  
                                       l7823 238A                                         l7735 223E  
                                       l7751 1EE2                                         l7743 1E68  
                                       l8471 157C                                         l8463 1534  
                                       l8455 14F0                                         l8447 14AC  
                                       l8439 1454                                         l7497 202C  
                                       l7593 1AC6                                         l7585 1A9C  
                                       l7577 1A58                                         l7681 2354  
                                       l7817 2172                                         l7809 2146  
                                       l7833 23A0                                         l7825 2392  
                                       l8553 1E26                                         l7729 2206  
                                       l7745 1E7E                                         l8481 15EA  
                                       l8473 1592                                         l8465 153E  
                                       l8457 14FA                                         l8449 14B6  
                                       l8555 1A00                                         l7499 203C  
                                       l7595 1AD2                                         l7587 1AA2  
                                       l7579 1A68                                         l7835 245A  
                                       l7683 235C                                         l7691 22F4  
                                       l7827 2394                                         l7747 1EAC  
                                       l7739 1E50                                         l8491 1618  
                                       l8483 15FC                                         l8475 15A8  
                                       l8467 1552                                         l8459 1512  
                                       l8557 18F0                                         l7597 1ADE  
                                       l7589 1AAE                                         l7685 2366  
                                       l7693 22FC                                         l7829 2396  
                                       l7749 1EB0                                         l8485 1600  
                                       l8477 15BE                                         l8469 1566  
                                       l7599 1AEA                                         l7687 2368  
                                       l7695 2304                                         l8487 1602  
                                       l8479 15D4                                         l7697 2314  
                                       l7689 22EC                                         l8489 1614  
                                       STR_1 1019                                         STR_4 1011  
                 _RB5_InterruptHandeler_High 0019                                         _LATA 0F89  
                                       _LATB 0F8A                                         _LATC 0F8B  
                                       _LATD 0F8C                                         _LATE 0F8D  
                                       u7000 209A                                         u7001 2096  
                                       u7100 1ED2                                         u7110 1EE2  
                                       u7111 1EDE                                         u7050 2382  
                                       u7051 237E                                         u7107 1EC8  
                                       u7060 1D26                                         u7061 1D22  
                                       u6510 1B0A                                         u7070 2216  
                                       u6511 1B06                                         u7071 2212  
                                       u6504 19B4                                         u6520 1B24  
                                       u6600 1C20                                         u7080 1E60  
                                       u6505 19B0                                         u6521 1B20  
                                       u6601 1C1C                                         u7081 1E5C  
                                       u6530 1B4A                                         u6610 1C36  
                                       u7090 1EA4                                         u6531 1B46  
                                       u6611 1C32                                         u6540 1B68  
                                       u6620 1C5A                                         u7180 2156  
                                       u6541 1B64                                         u6621 1C56  
                                       u7181 2152                                         u6470 191E  
                                       u6550 1B84                                         u6630 1C7C  
                                       u6471 191A                                         u6551 1B80  
                                       u6631 1C78                                         u6720 18DC  
                                       u6704 183E                                         u6480 193E  
                                       u6560 1BAA                                         u6640 1C8C  
                                       u6800 16DE                                         u6721 18D6  
                                       u6705 183A                                         u6481 193A  
                                       u6561 1BA6                                         u6641 1C88  
                                       u7097 1E9A                                         u6730 18DE  
                                       u6714 1894                                         u6570 1BCE  
                                       u6650 1CB2                                         u6810 173E  
                                       u6715 1890                                         u6571 1BCA  
                                       u6651 1CAE                                         u6811 173A  
                                       u6740 1F6C                                         u6580 1BE8  
                                       u6660 1CE4                                         u6820 174E  
                                       u6900 1F18                                         u6741 1F68  
                                       u6581 1BE4                                         u6661 1CE0  
                                       u6821 174A                                         u6901 1F14  
                                       u6494 1964                                         u6750 21D6  
                                       u6590 1C02                                         u6670 232E  
                                       u6830 175E                                         u6910 1F36  
                                       u6495 1960                                         u6751 21D2  
                                       u6591 1BFE                                         u6671 232A  
                                       u6831 175A                                         u6911 1F32  
                                       u6680 17F8                                         u6840 176E  
                                       u6760 1646                                         u6920 1F58  
                                       u7800 144E                                         u6681 17F4  
                                       u6841 176A                                         u6761 1642  
                                       u6921 1F54                                         u7801 144A  
                                       u6690 1818                                         u6850 17AE  
                                       u6770 1688                                         u6930 225A  
                                       u7810 15FC                                         u6691 1814  
                                       u6851 17AA                                         u6771 1684  
                                       u6931 2256                                         u7811 15F8  
                                       u6860 203C                                         u6780 16A6  
                                       u6940 2278                                         u7820 1614  
                                       u6861 2038                                         u6781 16A2  
                                       u6941 2274                                         u7821 1610  
                                       u6870 205C                                         u6790 16DC  
                                       u6950 2294                                         u6871 2058  
                                       u6791 16D6                                         u6951 2290  
                                       u6880 20F6                                         u6960 22B2  
                                       u6881 20F2                                         u6961 22AE  
                                       u6970 21BC                                         u6890 1EFE  
                                       u6971 21B8                                         u6891 1EFA  
                                       u6980 1A2E                                         u7837 1A6E  
                                       u6981 1A2A                                         u6990 1A68  
                                       u7847 1A88                                         u6991 1A64  
                                       u7857 1A9E                                         u7867 21EC  
                                       _TMR2 0FCC                                         abs@a 004C  
                                       _dbuf 0080                                         _int1 00B2  
                                       _main 1434                             __end_of_CCP1_ISR 2494  
                           __end_of_CCP2_ISR 2490                                         _prec 00A8  
                                       fsr0h 0FEA                                         fsr1h 0FE2  
                                       indf0 0FEF                                         fsr2h 0FDA  
                                       fsr0l 0FE9                                         indf2 0FDF  
                                       fsr1l 0FE1                                         fsr2l 0FD9  
                                       btemp 007C                              __end_of_TMR_Isr 2470  
                                       prodl 0FF3                                         start 000E  
                               ___param_bank 0000                        _lcd_4bit_send_command 20E6  
                                      ??_abs 004E                         _gpio_pin_write_logic 190A  
                           __end_of_INT0_ISR 2480                             __end_of_INT1_ISR 247C  
                           __end_of_INT2_ISR 2478                                        ?_main 0043  
                            __end_of___awdiv 1BBC                                        _EEADR 0FA9  
                            __end_of___awmod 1C6C                              ___awdiv@divisor 0048  
                               led_off@F3064 0040                                        i2l532 2492  
                                      i2l453 2496                                        i2l537 248E  
                                      i2l760 248A                                        i2l769 249A  
                            ___awdiv@counter 004A                                        _RCREG 0FAE  
                               vfpfcnvrt@fmt 0051                                        _TMR0H 0FD7  
                                      _TMR1H 0FCF                                        _TMR0L 0FD6  
                                      _TMR1L 0FCE                                        _TMR3H 0FB3  
                                      _TMR3L 0FB2                                        _SPBRG 0FAF  
                                      _PORTA 0F80                                        _PORTB 0F81  
                                      _PORTC 0F82                                        _PORTD 0F83  
                                      _PORTE 0F84                                        _TRISA 0F92  
                                      _TRISB 0F93                                        _TRISC 0F94  
                                      _TRISD 0F95                                        _TRISE 0F96  
         __end_of_lcd_send_4bit_command_data 1FCA                   _lcd_send_4bit_command_data 1F5C  
                                      _TXREG 0FAD                             __end_of_TMR0_ISR 244E  
                           __end_of_TMR1_ISR 22EC                             __end_of_TMR2_ISR 246C  
                           __end_of_TMR3_ISR 2442                                        _lcd_1 00F5  
      __end_of_lcd_4bit_send_data_char_posit 2242                _lcd_4bit_send_data_char_posit 2206  
                                      _flags 0035        lcd_4bit_send_data_string_posit@colunm 005C  
                                      _fputc 1C6C                                        _width 00A6  
                                      _putch 2498                                        pclath 0FFA  
                                      pclatu 0FFB                                        tablat 0FF5  
                                      ttemp5 007D                                        ttemp6 0080  
                                      ttemp7 0084                                        status 0FD8  
                                      wtemp8 007D                              __end_of_sprintf 2320  
                     ?_I2C_BUS_COLLISION_ISR 0043                              __initialization 1FCA  
                               __end_of_main 1622           lcd_4bit_send_data_string_posit@lcd 005A  
         lcd_4bit_send_data_string_posit@ret 005F           lcd_4bit_send_data_string_posit@row 005B  
                      ?_gpio_pin_write_logic 0046            lcd_4bit_send_data_char_posit@data 005D  
                                  ??_ADC_ISR 0043                                _lat_registers 00D7  
                    _CCP1_INTERRUPT_HANDLERF 0031                                       ??_main 0071  
                              __activetblptr 0003                                    ??_RB4_ISR 0043  
                                  ??_RB5_ISR 0043                                    ??_RB6_ISR 0043  
                                  ??_RB7_ISR 0043                      capture_read_value@F3164 002D  
                                     ?_fputc 0046                                       _ADRESH 0FC4  
                                     _EEADRH 0FAA                                       _ADRESL 0FC3  
                                     _EEDATA 0FA8                                       _CCPR1H 0FBF  
                                     _CCPR2H 0FBC                                       _CCPR1L 0FBE  
                                     _CCPR2L 0FBB                                       _EECON2 0FA7  
                           ___awdiv@dividend 0046                             ?_interrupt_init1 0043  
                                     ?_putch 0043                                    ??_TMR_Isr 0043  
                                     i2l1104 2400                                       i2l1201 12A8  
                                     i2l1115 23E6                                       i2l1211 1348  
                                     i2l1203 12C8                                       i2l1061 247E  
                                     i2l1221 13E8                                       i2l1213 1368  
                                     i2l1205 12E8                                       i2l1071 2476  
                                     i2l1223 1408                                       i2l1215 1388  
                                     i2l1207 1308                                       i2l1217 13A8  
                                     i2l1209 1328                                       i2l1066 247A  
                                     i2l1082 2434                                       i2l1226 1428  
                                     i2l1219 13C8                                       i2l1093 241A  
                                     i2l1181 1048                                       i2l1191 1154  
                                     i2l1183 1068                                       i2l1193 1198  
                                     i2l1185 1088                                       i2l1195 11DC  
                                     i2l1187 10CC                                       i2l1364 2486  
                                     i2l1700 2440                                       i2l3141 2490  
                                     i2l1197 1220                                       i2l1189 1110  
                                     i2l3135 2494                                       i2l3223 247C  
                                     i2l3311 22C0                                       i2l1199 1264  
                                     i2l1369 2482                                       i2l3233 2474  
                                     i2l3241 2420                                       i2l3313 22D2  
                                     i2l3305 22B6                                       i2l1538 244C  
                                     i2l3147 248C                                       i2l3163 2488  
                                     i2l3331 2480                                       i2l3227 2478  
                                     i2l3307 22B8                                       i2l1468 2472  
                                     i2l3261 241A                                       i2l3253 2404  
                                     i2l3309 22BC                                       i2l3343 2470  
                                     i2l3247 2434                                       i2l3239 241E  
                                     i2l3255 2406                                       i2l1655 246A  
                                     i2l3169 249A                                       i2l3337 2484  
                                     i2l3281 23D0                                       i2l1737 246E  
                                     i2l1585 22EA                                       i2l3275 2400  
                                     i2l3267 23EA                                       i2l3283 23D2  
                                     i2l3269 23EC                                       i2l3289 23E6  
                                     i2l6051 2444                                       i2l6053 2448  
                                     i2l6049 2442                                       i2l6065 2436  
                                     i2l6059 2464                                       i2l6067 2438  
                                     i2l6069 243C                                       i2l2991 246C  
                                     i2l6801 10E8                                       i2l6811 112C  
                                     i2l6803 10F6                                       i2l6901 13B6  
                                     i2l6821 1170                                       i2l6813 113A  
                                     i2l6805 1106                                       i2l6911 1404  
                                     i2l6903 13C4                                       i2l6831 11B4  
                                     i2l6823 117E                                       i2l6815 114A  
                                     i2l6807 110A                                       i2l6913 1416  
                                     i2l6905 13D6                                       i2l6841 11F8  
                                     i2l6833 11C2                                       i2l6825 118E  
                                     i2l6817 114E                                       i2l6809 111E  
                                     i2l6915 1424                                       i2l6907 13E4  
                                     i2l6851 123C                                       i2l6843 1206  
                                     i2l6835 11D2                                       i2l6827 1192  
                                     i2l6819 1162                                       i2l6909 13F6  
                                     i2l6861 1280                                       i2l6853 124A  
                                     i2l6845 1216                                       i2l6837 11D6  
                                     i2l6829 11A6                                       i2l6781 1056  
                                     i2l6871 12C4                                       i2l6863 128E  
                                     i2l6855 125A                                       i2l6847 121A  
                                     i2l6839 11EA                                       i2l6791 10A4  
                                     i2l6783 1064                                       i2l6775 1028  
                                     i2l6881 1316                                       i2l6873 12D6  
                                     i2l6865 129E                                       i2l6857 125E  
                                     i2l6849 122E                                       i2l6793 10B2  
                                     i2l6785 1076                                       i2l6777 1036  
                                     i2l6891 1364                                       i2l6883 1324  
                                     i2l6875 12E4                                       i2l6867 12A2  
                                     i2l6859 1272                                       i2l6795 10C2  
                                     i2l6787 1084                                       i2l6779 1044  
                                     i2l6893 1376                                       i2l6885 1336  
                                     i2l6877 12F6                                       i2l6869 12B6  
                                     i2l6797 10C6                                       i2l6789 1096  
                                     i2l6895 1384                                       i2l6887 1344  
                                     i2l6879 1304                                       i2l6799 10DA  
                                     i2l6897 1396                                       i2l6889 1356  
                                     i2l6899 13A4                          _lcd_set_cursor_4bit 1DB4  
                              vfpfcnvrt@done 0054                                       _SPBRGH 0FB0  
                                     _SSPADD 0FC8       register_configure@hal_timer1$F3923@TMR 0046  
                                     _SSPBUF 0FC9                       ?_lcd_4bit_send_command 0051  
                               vfprintf@cfmt 005E                            __end_of_TMR1_Init 1DB4  
                                  ??___awdiv 004A                                    ??___awmod 004A  
                                     _memset 2354                                       clear_0 2010  
                                     clear_1 201C                             ___awdiv@quotient 004C  
                       ?_lcd_set_cursor_4bit 0054                              ___awmod@divisor 0048  
                     lcd_set_cursor_4bit@lcd 0054                                       isa$std 0001  
                     lcd_set_cursor_4bit@ret 0059                       lcd_set_cursor_4bit@row 0055  
                            ___awmod@counter 004A                                       fputc@c 0046  
                                  ?_CCP1_ISR 0043                                 __pdataCOMRAM 0071  
                                  ?_CCP2_ISR 0043                                 __mediumconst 0000  
                                     tblptrh 0FF7                                       tblptrl 0FF6  
                                     tblptru 0FF8                    _TIMER3_INTERRUPT_HANDLERF 00AA  
                                     putch@c 0043                             __end_of_vfprintf 21C6  
                                  ??_sprintf 0063                      _convert_uint8_to_string 2142  
                                 __accesstop 0080                      __end_of__initialization 2022  
             ?_lcd_4bit_send_data_char_posit 005A                                    ?_INT0_ISR 0043  
                                  ?_INT1_ISR 0043                                    ?_INT2_ISR 0043  
                              ___rparam_used 0001                   convert_uint8_to_string@num 00FB  
                 convert_uint8_to_string@str 0070                      _lcd_4bit_send_data_char 208A  
                     ??_gpio_pin_write_logic 0048                               __pcstackCOMRAM 0043  
                               __pidataBANK0 23AA                                    ?_TMR0_ISR 0043  
                                  ?_TMR1_ISR 0043                                    ?_TMR2_ISR 0043  
                                  ?_TMR3_ISR 0043          lcd_4bit_send_data_string_posit@data 005D  
                              __end_of_fputc 1D16                        ??_lcd_set_cursor_4bit 0057  
                              __end_of_putch 249A                     lcd_4bit_send_command@lcd 0051  
                          RB5_ISR@RB5_source 0043                     lcd_4bit_send_command@ret 0053  
                                 ??_CCP1_ISR 0043                                   ??_CCP2_ISR 0043  
                     _INT2_InterruptHandeler 001F                                      ??_fputc 0049  
             _preload_value@hal_timer1$F3998 0005                                      ??_putch 0046  
                                 __pbssBANK0 0080                 __end_of_lcd_send_4bit_enable 2206  
                                 ??_INT0_ISR 0043                                   ??_INT1_ISR 0043  
                                 ??_INT2_ISR 0043                    lcd_set_cursor_4bit@column 0056  
                                 ??_TMR0_ISR 0043                                   ??_TMR1_ISR 0043  
                                 ??_TMR2_ISR 0043                                   ??_TMR3_ISR 0043  
                                    _ADC_ISR 2494                              led_toggle@F3069 003F  
                                    ?_memset 0046                            _EUSART_RX_ASY_ISR 249A  
                          led_intalize@F3054 0042                           ?_EUSART_RX_ASY_ISR 0043  
                  _RB6_InterruptHandeler_Low 0013                                      _RB4_ISR 241C  
                                    _RB5_ISR 2402                                      _RB6_ISR 23E8  
                                    _RB7_ISR 23CE                  ?_lcd_send_4bit_command_data 004E  
                          _EUSART_TX_ASY_ISR 2488                                _keypad_values 1001  
                    lcd_send_4bit_enable@lcd 004E                                      i2u90_40 22D2  
                                    i2u90_41 22CE                                      i2u91_48 22D8  
                                    i2u91_49 22EA                                      i2u86_40 2430  
                                    i2u86_41 242C                      lcd_send_4bit_enable@ret 004F  
                                    i2u87_40 2416                                      i2u87_41 2412  
                                    i2u88_40 23FC                                      i2u88_41 23F8  
                                    i2u89_40 23E2                                      i2u89_41 23DE  
                          RB7_ISR@RB7_source 0043                          ??_EUSART_RX_ASY_ISR 0043  
                      __end_of_OSC_configure 22B6                           ?_EUSART_TX_ASY_ISR 0043  
                  ??_convert_uint8_to_string 0071                   _RB4_InterruptHandeler_High 001D  
                                    _TMR_Isr 246C                               _tris_registers 00EB  
                 _RB7_InterruptHandeler_High 0011                    ??_lcd_4bit_send_data_char 0053  
                    ??_I2C_BUS_COLLISION_ISR 0043                          ??_EUSART_TX_ASY_ISR 0043  
                                    __Hparam 0000                                      __Lparam 0000  
                  __end_of_EUSART_RX_ASY_ISR 249C                                      ___awdiv 1AF8  
                                    ___awmod 1BBC                                    ?_vfprintf 005B  
                               __psmallconst 1000                   __end_of_gpio_pin_intialize 208A  
                                    __pcinit 1FCA                                ?_MSSP_Spi_ISR 0043  
                                    __ramtop 1000  __end_of_register_configure@hal_timer1$F3923 227C  
        _register_configure@hal_timer1$F3923 2242         ?_register_configure@hal_timer1$F3925 0046  
      ??_register_configure@hal_timer1$F3927 0047                                      __ptext0 1434  
                              relay_on@F3057 003D                                      __ptext1 1E50  
                                    __ptext2 2206                                      __ptext3 1DB4  
                                    __ptext4 208A                                      __ptext5 2384  
                                    __ptext6 1D16                                      __ptext7 2242  
                                    __ptext8 227C                                      __ptext9 1EE6  
                                  _T0CONbits 0FD5                    __end_of_EUSART_TX_ASY_ISR 248C  
                                  _T1CONbits 0FCD                                    _T2CONbits 0FCA  
                                  _T3CONbits 0FB1                             ___awmod@dividend 0046  
                     _TMR2_INTERRUPT_HANDLER 00AC                                   _hour_nums2 00B9  
                          _I2C_MODULE_TR_ISR 2480                                      _sprintf 22EC  
                             __pintcode_body 101E                         end_of_initialization 2022  
                         ?_I2C_MODULE_TR_ISR 0043                                   _minute_num 0037  
                                 _second_num 0038                                      fputc@fp 0048  
                                    memset@c 0047                                      memset@n 0049  
                                    memset@p 004B                                      int_func 101E  
                                 fp__TMR_Isr 0000                      ??_lcd_4bit_send_command 0053  
                        ??_I2C_MODULE_TR_ISR 0043                        gpio_pin_intialize@ret 0050  
    __end_of_lcd_4bit_send_data_string_posit 1EE6            ??_lcd_4bit_send_data_string_posit 005F  
           ?_lcd_4bit_send_data_string_posit 005A              _lcd_4bit_send_data_string_posit 1E50  
                          __end_of_vfpfcnvrt 17E4                                    _RCSTAbits 0FAB  
            __end_of_convert_uint8_to_string 2186                                      postdec1 0FE5  
                                    postdec2 0FDD                                      postinc0 0FEE  
                                    postinc1 0FE6                                      postinc2 0FDE  
                           vfpfcnvrt@convarg 0056                                   ??_vfprintf 005E  
             lcd_send_4bit_command_data@data 004F                               ??_MSSP_Spi_ISR 0043  
         MODE_configure@hal_timer1$F3917@TMR 0046                          _lcd_4bit_initialize 1A1A  
    _EUSART_FRAMING_ERROR_INTERRUPT_HANDLERF 0027                                    _TMR1_Init 1D16  
               _I2C_Write_Collision_HANDLERF 000D                                    _PORTBbits 0F81  
            __end_of_lcd_4bit_send_data_char 20E6                       _ADC_INTERRUPT_HANDLERF 0033  
                       _lcd_send_4bit_enable 21C6                             _InterruptManager 0008  
                  __end_of_I2C_MODULE_TR_ISR 2484         __end_of_gpio_pin_direction_intialize 190A  
               _gpio_pin_direction_intialize 17E4                                    _TRISCbits 0F94  
                 lcd_4bit_send_data_char@lcd 0051                   lcd_4bit_send_data_char@ret 0053  
                       ?_lcd_4bit_initialize 0054                 _EUSART_TX_INTERRUPT_HANDLERF 002B  
          ??_MODE_configure@hal_timer1$F3921 0047      __end_of_MODE_configure@hal_timer1$F3917 1F5C  
            _MODE_configure@hal_timer1$F3917 1EE6             ?_MODE_configure@hal_timer1$F3919 0046  
                                _CCP1CONbits 0FBD                                  _CCP2CONbits 0FBA  
                                  _TXSTAbits 0FAC                convert_uint16_to_string@F3208 00A0  
                                vfpfcnvrt@ap 0052                                  vfpfcnvrt@cp 0055  
                                vfpfcnvrt@fp 0050                                  _BAUDCONbits 0FB8  
                              __pidataCOMRAM 244E                                   ?_TMR1_Init 0047  
                      ?_lcd_send_4bit_enable 004E                               __end_of_memset 2384  
                        start_initialization 1FCA                                  __end_of_abs 2354  
              ?_gpio_pin_direction_intialize 0046             lcd_4bit_send_data_char_posit@lcd 005A  
           lcd_4bit_send_data_char_posit@ret 005E             lcd_4bit_send_data_char_posit@row 005B  
                      ??_lcd_4bit_initialize 0055          lcd_4bit_send_data_char_posit@colunm 005C  
                __end_of_lcd_set_cursor_4bit 1E50                                  vfprintf@fmt 005C  
                                __pdataBANK0 00D7                                     ?_ADC_ISR 0043  
                                   ??_memset 004B                                   memset@dest 0046  
               lcd_4bit_send_command@command 0052            spi_slave_mode_configuration@F3141 0073  
          spi_slave_mode_configuration@F3143 0072            spi_slave_mode_configuration@F3145 0071  
          spi_slave_mode_configuration@F3139 0074                                     ?_RB4_ISR 0043  
                                   ?_RB5_ISR 0043                                     ?_RB6_ISR 0043  
                                   ?_RB7_ISR 0043                                  __pbssCOMRAM 0001  
                              __pcstackBANK0 00FB                             OSC_configure@TMR 0046  
                     _INT0_InterruptHandeler 0023                                     ?_TMR_Isr 0043  
                       __end_of_MSSP_Spi_ISR 2474                            _TIMER0_INTERRUPPT 00AE  
            gpio_pin_direction_intialize@ret 004C                               _app_initialize 245A  
              __end_of_I2C_BUS_COLLISION_ISR 2488                                    _main$5590 00FC  
                                  _main$5591 00FD                                    __pintcode 0008  
                                   ?___awdiv 0046                                     ?___awmod 0046  
                          ??_interrupt_init1 004A                       ??_lcd_send_4bit_enable 004F  
                  gpio_pin_write_logic@logic 0047                                  ??_TMR1_Init 0048  
                  _RB4_InterruptHandeler_Low 001B                                  __smallconst 1000  
                   gpio_pin_intialize@_pin_t 004E                                     _CCP1_ISR 2490  
                                   _CCP2_ISR 248C                    _RB7_InterruptHandeler_Low 000F  
                                   ?_sprintf 005F                           _gpio_pin_intialize 202C  
                 _RB6_InterruptHandeler_High 0015                       __end_of_app_initialize 2464  
             ??_gpio_pin_direction_intialize 0047                                    _hour_nums 00C8  
                                   _INT0_ISR 247C                                     _INT1_ISR 2478  
                                   _INT2_ISR 2474                                     _RB4_Flag 007B  
                                   _RB5_Flag 007A                                     _RB6_Flag 0079  
                                   _RB7_Flag 0078      _EUSART_OVERRUN_ERROR_INTERRUPT_HANDLERF 0025  
                        ?_gpio_pin_intialize 004E                     __end_of_InterruptManager 1434  
                                   _PIE1bits 0F9D                                     _PIE2bits 0FA0  
        gpio_pin_direction_intialize@__pin_t 0046                __end_of_lcd_4bit_send_command 2142  
                                   i2u600_40 13C4                                     i2u600_41 13C0  
                                   i2u601_40 13D6                                     i2u601_41 13D2  
                                   _PIR1bits 0F9E                                     i2u602_40 13E4  
                                   i2u602_41 13E0                                     i2u603_40 13F6  
                                   i2u603_41 13F2                                     _PIR2bits 0FA1  
                                   i2u604_40 1404                                     i2u604_41 1400  
                                   i2u605_40 1416                                     i2u605_41 1412  
                                   i2u606_40 1424                                     i2u550_40 1084  
                                   i2u606_41 1420                                     i2u550_41 1080  
                                   i2u551_40 1096                                     i2u551_41 1092  
                                   i2u560_40 112C                                     i2u552_40 10A4  
                                   i2u560_41 1128                                     i2u552_41 10A0  
                                   i2u561_40 113A                                     i2u553_40 10B2  
                                   i2u545_40 1036                                     i2u561_41 1136  
                                   i2u553_41 10AE                                     i2u545_41 1032  
                                   i2u570_40 11D2                                     i2u562_40 114A  
                                   i2u554_40 10C2                                     i2u546_40 1044  
                                   i2u570_41 11CE                                     i2u562_41 1146  
                                   i2u554_41 10BE                                     i2u546_41 1040  
                                   i2u571_40 11EA                                     i2u563_40 1162  
                                   i2u555_40 10DA                                     i2u547_40 1056  
                                   i2u571_41 11E6                                     i2u563_41 115E  
                                   i2u555_41 10D6                                     i2u547_41 1052  
                                   i2u580_40 1280                                     i2u572_40 11F8  
                                   i2u564_40 1170                                     i2u556_40 10E8  
                                   i2u548_40 1064                                     i2u580_41 127C  
                                   i2u572_41 11F4                                     i2u564_41 116C  
                                   i2u556_41 10E4                                     i2u548_41 1060  
                                   i2u581_40 128E                                     i2u573_40 1206  
                                   i2u565_40 117E                                     i2u557_40 10F6  
                                   i2u549_40 1076                                     i2u581_41 128A  
                                   i2u573_41 1202                                     i2u565_41 117A  
                                   i2u557_41 10F2                                     i2u549_41 1072  
                                   i2u590_40 1324                                     i2u582_40 129E  
                                   i2u574_40 1216                                     i2u566_40 118E  
                                   i2u558_40 1106                                     i2u590_41 1320  
                                   i2u582_41 129A                                     i2u574_41 1212  
                                   i2u566_41 118A                                     i2u558_41 1102  
                                   i2u591_40 1336                                     i2u583_40 12B6  
                                   i2u575_40 122E                                     i2u567_40 11A6  
                                   i2u559_40 111E                                     i2u591_41 1332  
                                   i2u583_41 12B2                                     i2u575_41 122A  
                                   i2u567_41 11A2                                     i2u559_41 111A  
                                   i2u592_40 1344                                     i2u584_40 12C4  
                                   i2u576_40 123C                                     i2u568_40 11B4  
                                   i2u592_41 1340                                     i2u584_41 12C0  
                                   i2u576_41 1238                                     i2u568_41 11B0  
                                   i2u593_40 1356                                     i2u585_40 12D6  
                                   i2u577_40 124A                                     i2u569_40 11C2  
                                   i2u593_41 1352                                     i2u585_41 12D2  
                                   i2u577_41 1246                                     i2u569_41 11BE  
                                   i2u594_40 1364                                     i2u586_40 12E4  
                                   i2u578_40 125A                                     i2u594_41 1360  
                                   i2u586_41 12E0                                     i2u578_41 1256  
                                   i2u595_40 1376                                     i2u587_40 12F6  
                                   i2u579_40 1272                                     i2u595_41 1372  
                                   i2u587_41 12F2                                     i2u579_41 126E  
                                   i2u596_40 1384                                     i2u588_40 1304  
                                   i2u596_41 1380                                     i2u588_41 1300  
                                   i2u597_40 1396                                     i2u589_40 1316  
                                   i2u597_41 1392                                     i2u589_41 1312  
                                   i2u598_40 13A4                                     i2u598_41 13A0  
                                   i2u599_40 13B6                                     i2u599_41 13B2  
                 _TIMER1_INTERRUPPT_HANDLERF 0003                            RB4_ISR@RB4_source 0043  
                                   _TMR0_ISR 2442                                     _TMR1_ISR 22B6  
                                   _TMR2_ISR 2464                                     _TMR3_ISR 2436  
                                  _vfpfcnvrt 1622                                   _ADCON0bits 0FC2  
                                 _ADCON1bits 0FC1                                   _ADCON2bits 0FC0  
                       ??_gpio_pin_intialize 004F                     ?_convert_uint8_to_string 0070  
                                 vfpfcnvrt@c 005A                      gpio_pin_write_logic@ret 004D  
                                _INTCON2bits 0FF1                                  _INTCON3bits 0FF0  
                                  copy_data0 1FDE                                    copy_data1 1FFE  
                   ?_lcd_4bit_send_data_char 0051                              ?_app_initialize 0043  
                               _minute_nums2 00BE                                 _second_nums2 00C3  
                                 _EECON1bits 0FA6                                     __Hrparam 0000  
                                 vfprintf@ap 005D                                     __Lrparam 0000  
                                 vfprintf@fp 005B                                 _tmr1_counter 003A  
                _MSSP_SPI_INTERRUPT_HANDLERF 0009                                   ?_vfpfcnvrt 0050  
                    _CCP2_INTERRUPT_HANDLERF 002F                       _I2C_INTERRUPT_HANDLERF 000B  
                              _preload_value 0007                                   sprintf@fmt 0060  
                          RB6_ISR@RB6_source 0043                                     __ptext10 2142  
                                   __ptext11 22EC                                     __ptext20 245A  
                                   __ptext12 2186                                     __ptext21 1A1A  
                                   __ptext13 1622                                     __ptext30 2464  
                                   __ptext22 20E6                                     __ptext14 1C6C  
                                   __ptext31 22B6                                     __ptext23 21C6  
                                   __ptext15 2498                                     __ptext40 2478  
                                   __ptext32 246C                                     __ptext24 1F5C  
                                   __ptext16 2320                                     __ptext41 247C  
                                   __ptext33 2442                                     __ptext25 202C  
                                   __ptext17 1BBC                                     __ptext42 2480  
                                   __ptext34 23CE                                     __ptext26 190A  
                                   __ptext18 1AF8                                     __ptext43 2484  
                                   __ptext35 23E8                                     __ptext27 17E4  
                                   __ptext19 2354                                     __ptext44 2488  
                                   __ptext36 2402                                     __ptext45 249A  
                                   __ptext37 241C                                     __ptext29 2436  
                                   __ptext46 248C                                     __ptext38 2470  
                                   __ptext47 2490                                     __ptext39 2474  
                                   __ptext48 2494                                     __ptext49 0000  
                              _OSC_configure 227C                 _EUSART_RX_INTERRUPT_HANDLERF 0029  
                                   _hour_num 0036                               relay_off@F3062 003C  
         spi_master_mode_configuration@F3131 0077           spi_master_mode_configuration@F3133 0076  
         spi_master_mode_configuration@F3135 0075                                     isa$xinst 0000  
               lcd_4bit_initialize@l_counter 0056                                     int$flags 007C  
                               TMR1_Init@TMR 0047                                     _vfprintf 2186  
                               _MSSP_Spi_ISR 2470                                  _minute_nums 00CD  
                      __end_of_keypad_values 1011                                   _INTCONbits 0FF2  
                                _second_nums 00D2                  __end_of_lcd_4bit_initialize 1AF8  
               ??_lcd_send_4bit_command_data 0050                 __end_of_gpio_pin_write_logic 1A1A  
                             ?_OSC_configure 0046                                 _preload_vall 0001  
                                   intlevel2 0000                                    sprintf@ap 0063  
                            _interrupt_init1 2384                lcd_send_4bit_command_data@lcd 004E  
              lcd_send_4bit_command_data@ret 0050                                  ??_vfpfcnvrt 0053  
                 gpio_pin_write_logic@_pin_t 0046                         relay_initalize@F3052 003E  
                                _preload_val 003B                                     sprintf@f 0064  
                                   sprintf@s 005F              ??_lcd_4bit_send_data_char_posit 005E  
                             _port_registers 00E1                                  _SSPCON1bits 0FC6  
                                _SSPCON2bits 0FC5                       _INT1_InterruptHandeler 0021  
                          ?_InterruptManager 0043                       lcd_4bit_initialize@lcd 0054  
                     lcd_4bit_initialize@ret 0057  
